

Microchip Technology PIC LITE Macro Assembler V2.00 build -1524193055 
                                                                                               Fri Nov 09 14:54:51 2018

Microchip Technology Omniscient Code Generator v2.00 (Free mode) build 20180527130849
     1  0000                     
      + 0000                     
     2                           ; Version 2.00
     3                           ; Generated 27/05/2018 GMT
     4                           
     5                           ; 
     6                           ; Copyright © 2018, Microchip Technology Inc. and its subsidiaries ("Microchip")
     7                           ; All rights reserved.
     8                           ; 
     9                           ; This software is developed by Microchip Technology Inc. and its subsidiaries ("Microch
                                 ip").
    10                           ; 
    11                           ; Redistribution and use in source and binary forms, with or without modification, are
    12                           ; permitted provided that the following conditions are met:
    13                           ; 
    14                           ;     1. Redistributions of source code must retain the above copyright notice, this lis
                                 t of
    15                           ;        conditions and the following disclaimer.
    16                           ; 
    17                           ;     2. Redistributions in binary form must reproduce the above copyright notice, this 
                                 list
    18                           ;        of conditions and the following disclaimer in the documentation and/or other
    19                           ;        materials provided with the distribution.
    20                           ; 
    21                           ;     3. Microchip's name may not be used to endorse or promote products derived from th
                                 is
    22                           ;        software without specific prior written permission.
    23                           ; 
    24                           ; THIS SOFTWARE IS PROVIDED BY MICROCHIP "AS IS" AND ANY EXPRESS OR IMPLIED WARRANTIES,

    25                           ; INCLUDING, BUT NOT LIMITED TO, THE IMPLIED WARRANTIES OF MERCHANTABILITY AND FITNESS F
                                 OR
    26                           ; PURPOSE ARE DISCLAIMED.  IN NO EVENT SHALL MICROCHIP BE LIABLE FOR ANY DIRECT, INDIREC
                                 T,
    27                           ; INCIDENTAL, SPECIAL, EXEMPLARY, OR CONSEQUENTIAL DAMAGES (INCLUDING BUT NOT LIMITED TO
                                 
    28                           ; PROCUREMENT OF SUBSTITUTE GOODS OR SERVICES; LOSS OF USE, DATA OR PROFITS; OR BUSINESS
                                 
    29                           ; INTERRUPTION) HOWSOEVER CAUSED AND ON ANY THEORY OF LIABILITY, WHETHER IN CONTRACT, ST
                                 RICT
    30                           ; LIABILITY, OR TORT (INCLUDING NEGLIGENCE OR OTHERWISE) ARISING IN ANY WAY OUT OF THE U
                                 SE OF
    31                           ; THIS SOFTWARE, EVEN IF ADVISED OF THE POSSIBILITY OF SUCH DAMAGE.
    32                           ; 
    33                           
    34                           
    35                           ; 
    36                           ; Code-generator required, PIC16F876 Definitions
    37                           ; 
    38  0004                     fsr0 equ 04h
    39  0004                     indf equ 00h
    40  0000                     indf0 equ 00h
    41  0000                     pc equ 02h
    42  0002                     pcl equ 02h
    43  0002                     pclath equ 0Ah
    44  000A                     status equ 03h
    45  0003                     
     2                           opt pagewidth 120
     3  0000                     byte0	macro	val
     4                           	(getbyte(val,0))
     5                           endm
     6  0000                     byte1	macro	val
     7                           	(getbyte(val,1))
     8                           endm
     9  0000                     byte2	macro	val
    10                           	(getbyte(val,2))
    11                           endm
    12  0000                     byte3	macro	val
    13                           	(getbyte(val,3))
    14                           endm
    15  0000                     byte4	macro	val
    16                           	(getbyte(val,4))
    17                           endm
    18  0000                     byte5	macro	val
    19                           	(getbyte(val,5))
    20                           endm
    21  0000                     byte6	macro	val
    22                           	(getbyte(val,6))
    23                           endm
    24  0000                     byte7	macro	val
    25                           	(getbyte(val,7))
    26                           endm
    27  0000                     getword	macro	val,pos
    28                           	(((val) >> (8 * pos)) and 0xffff)
    29                           endm
    30  0000                     word0	macro	val
    31                           	(getword(val,0))
    32                           endm
    33  0000                     word1	macro	val
    34                           	(getword(val,2))
    35                           endm
    36  0000                     word2	macro	val
    37                           	(getword(val,4))
    38                           endm
    39  0000                     word3	macro	val
    40                           	(getword(val,6))
    41                           endm
    42  0000                     gettword	macro	val,pos
    43                           	(((val) >> (8 * pos)) and 0xffffff)
    44                           endm
    45  0000                     tword0	macro	val
    46                           	(gettword(val,0))
    47                           endm
    48  0000                     tword1	macro	val
    49                           	(gettword(val,3))
    50                           endm
    51  0000                     tword2	macro	val
    52                           	(gettword(val,6))
    53                           endm
    54  0000                     getdword	macro	val,pos
    55                           	(((val) >> (8 * pos)) and 0xffffffff)
    56                           endm
    57  0000                     dword0	macro	val
    58                           	(getdword(val,0))
    59                           endm
    60  0000                     dword1	macro	val
    61                           	(getdword(val,4))
    62                           endm
    63  0000                     clrc	macro
    64                           	bcf	3,0
    65                           	endm
    66  0000                     clrz	macro
    67                           	bcf	3,2
    68                           	endm
    69  0000                     setc	macro
    70                           	bsf	3,0
    71                           	endm
    72  0000                     setz	macro
    73                           	bsf	3,2
    74                           	endm
    75  0000                     skipc	macro
    76                           	btfss	3,0
    77                           	endm
    78  0000                     skipz	macro
    79                           	btfss	3,2
    80                           	endm
    81  0000                     skipnc	macro
    82                           	btfsc	3,0
    83                           	endm
    84  0000                     skipnz	macro
    85                           	btfsc	3,2
    86                           	endm
    87  0000                     # 54 "C:\Program Files (x86)\Microchip\xc8\v2.00\pic\include\pic16f876.h"
    88                           INDF equ 00h ;# 
    89  0000                     # 61 "C:\Program Files (x86)\Microchip\xc8\v2.00\pic\include\pic16f876.h"
    90                           TMR0 equ 01h ;# 
    91  0001                     # 68 "C:\Program Files (x86)\Microchip\xc8\v2.00\pic\include\pic16f876.h"
    92                           PCL equ 02h ;# 
    93  0002                     # 75 "C:\Program Files (x86)\Microchip\xc8\v2.00\pic\include\pic16f876.h"
    94                           STATUS equ 03h ;# 
    95  0003                     # 161 "C:\Program Files (x86)\Microchip\xc8\v2.00\pic\include\pic16f876.h"
    96                           FSR equ 04h ;# 
    97  0004                     # 168 "C:\Program Files (x86)\Microchip\xc8\v2.00\pic\include\pic16f876.h"
    98                           PORTA equ 05h ;# 
    99  0005                     # 218 "C:\Program Files (x86)\Microchip\xc8\v2.00\pic\include\pic16f876.h"
   100                           PORTB equ 06h ;# 
   101  0006                     # 280 "C:\Program Files (x86)\Microchip\xc8\v2.00\pic\include\pic16f876.h"
   102                           PORTC equ 07h ;# 
   103  0007                     # 342 "C:\Program Files (x86)\Microchip\xc8\v2.00\pic\include\pic16f876.h"
   104                           PCLATH equ 0Ah ;# 
   105  000A                     # 362 "C:\Program Files (x86)\Microchip\xc8\v2.00\pic\include\pic16f876.h"
   106                           INTCON equ 0Bh ;# 
   107  000B                     # 440 "C:\Program Files (x86)\Microchip\xc8\v2.00\pic\include\pic16f876.h"
   108                           PIR1 equ 0Ch ;# 
   109  000C                     # 496 "C:\Program Files (x86)\Microchip\xc8\v2.00\pic\include\pic16f876.h"
   110                           PIR2 equ 0Dh ;# 
   111  000D                     # 529 "C:\Program Files (x86)\Microchip\xc8\v2.00\pic\include\pic16f876.h"
   112                           TMR1 equ 0Eh ;# 
   113  000E                     # 536 "C:\Program Files (x86)\Microchip\xc8\v2.00\pic\include\pic16f876.h"
   114                           TMR1L equ 0Eh ;# 
   115  000E                     # 543 "C:\Program Files (x86)\Microchip\xc8\v2.00\pic\include\pic16f876.h"
   116                           TMR1H equ 0Fh ;# 
   117  000F                     # 550 "C:\Program Files (x86)\Microchip\xc8\v2.00\pic\include\pic16f876.h"
   118                           T1CON equ 010h ;# 
   119  0010                     # 627 "C:\Program Files (x86)\Microchip\xc8\v2.00\pic\include\pic16f876.h"
   120                           TMR2 equ 011h ;# 
   121  0011                     # 634 "C:\Program Files (x86)\Microchip\xc8\v2.00\pic\include\pic16f876.h"
   122                           T2CON equ 012h ;# 
   123  0012                     # 705 "C:\Program Files (x86)\Microchip\xc8\v2.00\pic\include\pic16f876.h"
   124                           SSPBUF equ 013h ;# 
   125  0013                     # 712 "C:\Program Files (x86)\Microchip\xc8\v2.00\pic\include\pic16f876.h"
   126                           SSPCON equ 014h ;# 
   127  0014                     # 782 "C:\Program Files (x86)\Microchip\xc8\v2.00\pic\include\pic16f876.h"
   128                           CCPR1 equ 015h ;# 
   129  0015                     # 789 "C:\Program Files (x86)\Microchip\xc8\v2.00\pic\include\pic16f876.h"
   130                           CCPR1L equ 015h ;# 
   131  0015                     # 796 "C:\Program Files (x86)\Microchip\xc8\v2.00\pic\include\pic16f876.h"
   132                           CCPR1H equ 016h ;# 
   133  0016                     # 803 "C:\Program Files (x86)\Microchip\xc8\v2.00\pic\include\pic16f876.h"
   134                           CCP1CON equ 017h ;# 
   135  0017                     # 861 "C:\Program Files (x86)\Microchip\xc8\v2.00\pic\include\pic16f876.h"
   136                           RCSTA equ 018h ;# 
   137  0018                     # 956 "C:\Program Files (x86)\Microchip\xc8\v2.00\pic\include\pic16f876.h"
   138                           TXREG equ 019h ;# 
   139  0019                     # 963 "C:\Program Files (x86)\Microchip\xc8\v2.00\pic\include\pic16f876.h"
   140                           RCREG equ 01Ah ;# 
   141  001A                     # 970 "C:\Program Files (x86)\Microchip\xc8\v2.00\pic\include\pic16f876.h"
   142                           CCPR2 equ 01Bh ;# 
   143  001B                     # 977 "C:\Program Files (x86)\Microchip\xc8\v2.00\pic\include\pic16f876.h"
   144                           CCPR2L equ 01Bh ;# 
   145  001B                     # 984 "C:\Program Files (x86)\Microchip\xc8\v2.00\pic\include\pic16f876.h"
   146                           CCPR2H equ 01Ch ;# 
   147  001C                     # 991 "C:\Program Files (x86)\Microchip\xc8\v2.00\pic\include\pic16f876.h"
   148                           CCP2CON equ 01Dh ;# 
   149  001D                     # 1049 "C:\Program Files (x86)\Microchip\xc8\v2.00\pic\include\pic16f876.h"
   150                           ADRESH equ 01Eh ;# 
   151  001E                     # 1056 "C:\Program Files (x86)\Microchip\xc8\v2.00\pic\include\pic16f876.h"
   152                           ADCON0 equ 01Fh ;# 
   153  001F                     # 1152 "C:\Program Files (x86)\Microchip\xc8\v2.00\pic\include\pic16f876.h"
   154                           OPTION_REG equ 081h ;# 
   155  0081                     # 1222 "C:\Program Files (x86)\Microchip\xc8\v2.00\pic\include\pic16f876.h"
   156                           TRISA equ 085h ;# 
   157  0085                     # 1272 "C:\Program Files (x86)\Microchip\xc8\v2.00\pic\include\pic16f876.h"
   158                           TRISB equ 086h ;# 
   159  0086                     # 1334 "C:\Program Files (x86)\Microchip\xc8\v2.00\pic\include\pic16f876.h"
   160                           TRISC equ 087h ;# 
   161  0087                     # 1396 "C:\Program Files (x86)\Microchip\xc8\v2.00\pic\include\pic16f876.h"
   162                           PIE1 equ 08Ch ;# 
   163  008C                     # 1452 "C:\Program Files (x86)\Microchip\xc8\v2.00\pic\include\pic16f876.h"
   164                           PIE2 equ 08Dh ;# 
   165  008D                     # 1485 "C:\Program Files (x86)\Microchip\xc8\v2.00\pic\include\pic16f876.h"
   166                           PCON equ 08Eh ;# 
   167  008E                     # 1519 "C:\Program Files (x86)\Microchip\xc8\v2.00\pic\include\pic16f876.h"
   168                           SSPCON2 equ 091h ;# 
   169  0091                     # 1581 "C:\Program Files (x86)\Microchip\xc8\v2.00\pic\include\pic16f876.h"
   170                           PR2 equ 092h ;# 
   171  0092                     # 1588 "C:\Program Files (x86)\Microchip\xc8\v2.00\pic\include\pic16f876.h"
   172                           SSPADD equ 093h ;# 
   173  0093                     # 1595 "C:\Program Files (x86)\Microchip\xc8\v2.00\pic\include\pic16f876.h"
   174                           SSPSTAT equ 094h ;# 
   175  0094                     # 1764 "C:\Program Files (x86)\Microchip\xc8\v2.00\pic\include\pic16f876.h"
   176                           TXSTA equ 098h ;# 
   177  0098                     # 1845 "C:\Program Files (x86)\Microchip\xc8\v2.00\pic\include\pic16f876.h"
   178                           SPBRG equ 099h ;# 
   179  0099                     # 1852 "C:\Program Files (x86)\Microchip\xc8\v2.00\pic\include\pic16f876.h"
   180                           ADRESL equ 09Eh ;# 
   181  009E                     # 1859 "C:\Program Files (x86)\Microchip\xc8\v2.00\pic\include\pic16f876.h"
   182                           ADCON1 equ 09Fh ;# 
   183  009F                     # 1912 "C:\Program Files (x86)\Microchip\xc8\v2.00\pic\include\pic16f876.h"
   184                           EEDATA equ 010Ch ;# 
   185  010C                     # 1919 "C:\Program Files (x86)\Microchip\xc8\v2.00\pic\include\pic16f876.h"
   186                           EEADR equ 010Dh ;# 
   187  010D                     # 1926 "C:\Program Files (x86)\Microchip\xc8\v2.00\pic\include\pic16f876.h"
   188                           EEDATH equ 010Eh ;# 
   189  010E                     # 1933 "C:\Program Files (x86)\Microchip\xc8\v2.00\pic\include\pic16f876.h"
   190                           EEADRH equ 010Fh ;# 
   191  010F                     # 1940 "C:\Program Files (x86)\Microchip\xc8\v2.00\pic\include\pic16f876.h"
   192                           EECON1 equ 018Ch ;# 
   193  018C                     # 1985 "C:\Program Files (x86)\Microchip\xc8\v2.00\pic\include\pic16f876.h"
   194                           EECON2 equ 018Dh ;# 
   195  018D                     # 54 "C:\Program Files (x86)\Microchip\xc8\v2.00\pic\include\pic16f876.h"
   196                           INDF equ 00h ;# 
   197  0000                     # 61 "C:\Program Files (x86)\Microchip\xc8\v2.00\pic\include\pic16f876.h"
   198                           TMR0 equ 01h ;# 
   199  0001                     # 68 "C:\Program Files (x86)\Microchip\xc8\v2.00\pic\include\pic16f876.h"
   200                           PCL equ 02h ;# 
   201  0002                     # 75 "C:\Program Files (x86)\Microchip\xc8\v2.00\pic\include\pic16f876.h"
   202                           STATUS equ 03h ;# 
   203  0003                     # 161 "C:\Program Files (x86)\Microchip\xc8\v2.00\pic\include\pic16f876.h"
   204                           FSR equ 04h ;# 
   205  0004                     # 168 "C:\Program Files (x86)\Microchip\xc8\v2.00\pic\include\pic16f876.h"
   206                           PORTA equ 05h ;# 
   207  0005                     # 218 "C:\Program Files (x86)\Microchip\xc8\v2.00\pic\include\pic16f876.h"
   208                           PORTB equ 06h ;# 
   209  0006                     # 280 "C:\Program Files (x86)\Microchip\xc8\v2.00\pic\include\pic16f876.h"
   210                           PORTC equ 07h ;# 
   211  0007                     # 342 "C:\Program Files (x86)\Microchip\xc8\v2.00\pic\include\pic16f876.h"
   212                           PCLATH equ 0Ah ;# 
   213  000A                     # 362 "C:\Program Files (x86)\Microchip\xc8\v2.00\pic\include\pic16f876.h"
   214                           INTCON equ 0Bh ;# 
   215  000B                     # 440 "C:\Program Files (x86)\Microchip\xc8\v2.00\pic\include\pic16f876.h"
   216                           PIR1 equ 0Ch ;# 
   217  000C                     # 496 "C:\Program Files (x86)\Microchip\xc8\v2.00\pic\include\pic16f876.h"
   218                           PIR2 equ 0Dh ;# 
   219  000D                     # 529 "C:\Program Files (x86)\Microchip\xc8\v2.00\pic\include\pic16f876.h"
   220                           TMR1 equ 0Eh ;# 
   221  000E                     # 536 "C:\Program Files (x86)\Microchip\xc8\v2.00\pic\include\pic16f876.h"
   222                           TMR1L equ 0Eh ;# 
   223  000E                     # 543 "C:\Program Files (x86)\Microchip\xc8\v2.00\pic\include\pic16f876.h"
   224                           TMR1H equ 0Fh ;# 
   225  000F                     # 550 "C:\Program Files (x86)\Microchip\xc8\v2.00\pic\include\pic16f876.h"
   226                           T1CON equ 010h ;# 
   227  0010                     # 627 "C:\Program Files (x86)\Microchip\xc8\v2.00\pic\include\pic16f876.h"
   228                           TMR2 equ 011h ;# 
   229  0011                     # 634 "C:\Program Files (x86)\Microchip\xc8\v2.00\pic\include\pic16f876.h"
   230                           T2CON equ 012h ;# 
   231  0012                     # 705 "C:\Program Files (x86)\Microchip\xc8\v2.00\pic\include\pic16f876.h"
   232                           SSPBUF equ 013h ;# 
   233  0013                     # 712 "C:\Program Files (x86)\Microchip\xc8\v2.00\pic\include\pic16f876.h"
   234                           SSPCON equ 014h ;# 
   235  0014                     # 782 "C:\Program Files (x86)\Microchip\xc8\v2.00\pic\include\pic16f876.h"
   236                           CCPR1 equ 015h ;# 
   237  0015                     # 789 "C:\Program Files (x86)\Microchip\xc8\v2.00\pic\include\pic16f876.h"
   238                           CCPR1L equ 015h ;# 
   239  0015                     # 796 "C:\Program Files (x86)\Microchip\xc8\v2.00\pic\include\pic16f876.h"
   240                           CCPR1H equ 016h ;# 
   241  0016                     # 803 "C:\Program Files (x86)\Microchip\xc8\v2.00\pic\include\pic16f876.h"
   242                           CCP1CON equ 017h ;# 
   243  0017                     # 861 "C:\Program Files (x86)\Microchip\xc8\v2.00\pic\include\pic16f876.h"
   244                           RCSTA equ 018h ;# 
   245  0018                     # 956 "C:\Program Files (x86)\Microchip\xc8\v2.00\pic\include\pic16f876.h"
   246                           TXREG equ 019h ;# 
   247  0019                     # 963 "C:\Program Files (x86)\Microchip\xc8\v2.00\pic\include\pic16f876.h"
   248                           RCREG equ 01Ah ;# 
   249  001A                     # 970 "C:\Program Files (x86)\Microchip\xc8\v2.00\pic\include\pic16f876.h"
   250                           CCPR2 equ 01Bh ;# 
   251  001B                     # 977 "C:\Program Files (x86)\Microchip\xc8\v2.00\pic\include\pic16f876.h"
   252                           CCPR2L equ 01Bh ;# 
   253  001B                     # 984 "C:\Program Files (x86)\Microchip\xc8\v2.00\pic\include\pic16f876.h"
   254                           CCPR2H equ 01Ch ;# 
   255  001C                     # 991 "C:\Program Files (x86)\Microchip\xc8\v2.00\pic\include\pic16f876.h"
   256                           CCP2CON equ 01Dh ;# 
   257  001D                     # 1049 "C:\Program Files (x86)\Microchip\xc8\v2.00\pic\include\pic16f876.h"
   258                           ADRESH equ 01Eh ;# 
   259  001E                     # 1056 "C:\Program Files (x86)\Microchip\xc8\v2.00\pic\include\pic16f876.h"
   260                           ADCON0 equ 01Fh ;# 
   261  001F                     # 1152 "C:\Program Files (x86)\Microchip\xc8\v2.00\pic\include\pic16f876.h"
   262                           OPTION_REG equ 081h ;# 
   263  0081                     # 1222 "C:\Program Files (x86)\Microchip\xc8\v2.00\pic\include\pic16f876.h"
   264                           TRISA equ 085h ;# 
   265  0085                     # 1272 "C:\Program Files (x86)\Microchip\xc8\v2.00\pic\include\pic16f876.h"
   266                           TRISB equ 086h ;# 
   267  0086                     # 1334 "C:\Program Files (x86)\Microchip\xc8\v2.00\pic\include\pic16f876.h"
   268                           TRISC equ 087h ;# 
   269  0087                     # 1396 "C:\Program Files (x86)\Microchip\xc8\v2.00\pic\include\pic16f876.h"
   270                           PIE1 equ 08Ch ;# 
   271  008C                     # 1452 "C:\Program Files (x86)\Microchip\xc8\v2.00\pic\include\pic16f876.h"
   272                           PIE2 equ 08Dh ;# 
   273  008D                     # 1485 "C:\Program Files (x86)\Microchip\xc8\v2.00\pic\include\pic16f876.h"
   274                           PCON equ 08Eh ;# 
   275  008E                     # 1519 "C:\Program Files (x86)\Microchip\xc8\v2.00\pic\include\pic16f876.h"
   276                           SSPCON2 equ 091h ;# 
   277  0091                     # 1581 "C:\Program Files (x86)\Microchip\xc8\v2.00\pic\include\pic16f876.h"
   278                           PR2 equ 092h ;# 
   279  0092                     # 1588 "C:\Program Files (x86)\Microchip\xc8\v2.00\pic\include\pic16f876.h"
   280                           SSPADD equ 093h ;# 
   281  0093                     # 1595 "C:\Program Files (x86)\Microchip\xc8\v2.00\pic\include\pic16f876.h"
   282                           SSPSTAT equ 094h ;# 
   283  0094                     # 1764 "C:\Program Files (x86)\Microchip\xc8\v2.00\pic\include\pic16f876.h"
   284                           TXSTA equ 098h ;# 
   285  0098                     # 1845 "C:\Program Files (x86)\Microchip\xc8\v2.00\pic\include\pic16f876.h"
   286                           SPBRG equ 099h ;# 
   287  0099                     # 1852 "C:\Program Files (x86)\Microchip\xc8\v2.00\pic\include\pic16f876.h"
   288                           ADRESL equ 09Eh ;# 
   289  009E                     # 1859 "C:\Program Files (x86)\Microchip\xc8\v2.00\pic\include\pic16f876.h"
   290                           ADCON1 equ 09Fh ;# 
   291  009F                     # 1912 "C:\Program Files (x86)\Microchip\xc8\v2.00\pic\include\pic16f876.h"
   292                           EEDATA equ 010Ch ;# 
   293  010C                     # 1919 "C:\Program Files (x86)\Microchip\xc8\v2.00\pic\include\pic16f876.h"
   294                           EEADR equ 010Dh ;# 
   295  010D                     # 1926 "C:\Program Files (x86)\Microchip\xc8\v2.00\pic\include\pic16f876.h"
   296                           EEDATH equ 010Eh ;# 
   297  010E                     # 1933 "C:\Program Files (x86)\Microchip\xc8\v2.00\pic\include\pic16f876.h"
   298                           EEADRH equ 010Fh ;# 
   299  010F                     # 1940 "C:\Program Files (x86)\Microchip\xc8\v2.00\pic\include\pic16f876.h"
   300                           EECON1 equ 018Ch ;# 
   301  018C                     # 1985 "C:\Program Files (x86)\Microchip\xc8\v2.00\pic\include\pic16f876.h"
   302                           EECON2 equ 018Dh ;# 
   303  018D                     # 54 "C:\Program Files (x86)\Microchip\xc8\v2.00\pic\include\pic16f876.h"
   304                           INDF equ 00h ;# 
   305  0000                     # 61 "C:\Program Files (x86)\Microchip\xc8\v2.00\pic\include\pic16f876.h"
   306                           TMR0 equ 01h ;# 
   307  0001                     # 68 "C:\Program Files (x86)\Microchip\xc8\v2.00\pic\include\pic16f876.h"
   308                           PCL equ 02h ;# 
   309  0002                     # 75 "C:\Program Files (x86)\Microchip\xc8\v2.00\pic\include\pic16f876.h"
   310                           STATUS equ 03h ;# 
   311  0003                     # 161 "C:\Program Files (x86)\Microchip\xc8\v2.00\pic\include\pic16f876.h"
   312                           FSR equ 04h ;# 
   313  0004                     # 168 "C:\Program Files (x86)\Microchip\xc8\v2.00\pic\include\pic16f876.h"
   314                           PORTA equ 05h ;# 
   315  0005                     # 218 "C:\Program Files (x86)\Microchip\xc8\v2.00\pic\include\pic16f876.h"
   316                           PORTB equ 06h ;# 
   317  0006                     # 280 "C:\Program Files (x86)\Microchip\xc8\v2.00\pic\include\pic16f876.h"
   318                           PORTC equ 07h ;# 
   319  0007                     # 342 "C:\Program Files (x86)\Microchip\xc8\v2.00\pic\include\pic16f876.h"
   320                           PCLATH equ 0Ah ;# 
   321  000A                     # 362 "C:\Program Files (x86)\Microchip\xc8\v2.00\pic\include\pic16f876.h"
   322                           INTCON equ 0Bh ;# 
   323  000B                     # 440 "C:\Program Files (x86)\Microchip\xc8\v2.00\pic\include\pic16f876.h"
   324                           PIR1 equ 0Ch ;# 
   325  000C                     # 496 "C:\Program Files (x86)\Microchip\xc8\v2.00\pic\include\pic16f876.h"
   326                           PIR2 equ 0Dh ;# 
   327  000D                     # 529 "C:\Program Files (x86)\Microchip\xc8\v2.00\pic\include\pic16f876.h"
   328                           TMR1 equ 0Eh ;# 
   329  000E                     # 536 "C:\Program Files (x86)\Microchip\xc8\v2.00\pic\include\pic16f876.h"
   330                           TMR1L equ 0Eh ;# 
   331  000E                     # 543 "C:\Program Files (x86)\Microchip\xc8\v2.00\pic\include\pic16f876.h"
   332                           TMR1H equ 0Fh ;# 
   333  000F                     # 550 "C:\Program Files (x86)\Microchip\xc8\v2.00\pic\include\pic16f876.h"
   334                           T1CON equ 010h ;# 
   335  0010                     # 627 "C:\Program Files (x86)\Microchip\xc8\v2.00\pic\include\pic16f876.h"
   336                           TMR2 equ 011h ;# 
   337  0011                     # 634 "C:\Program Files (x86)\Microchip\xc8\v2.00\pic\include\pic16f876.h"
   338                           T2CON equ 012h ;# 
   339  0012                     # 705 "C:\Program Files (x86)\Microchip\xc8\v2.00\pic\include\pic16f876.h"
   340                           SSPBUF equ 013h ;# 
   341  0013                     # 712 "C:\Program Files (x86)\Microchip\xc8\v2.00\pic\include\pic16f876.h"
   342                           SSPCON equ 014h ;# 
   343  0014                     # 782 "C:\Program Files (x86)\Microchip\xc8\v2.00\pic\include\pic16f876.h"
   344                           CCPR1 equ 015h ;# 
   345  0015                     # 789 "C:\Program Files (x86)\Microchip\xc8\v2.00\pic\include\pic16f876.h"
   346                           CCPR1L equ 015h ;# 
   347  0015                     # 796 "C:\Program Files (x86)\Microchip\xc8\v2.00\pic\include\pic16f876.h"
   348                           CCPR1H equ 016h ;# 
   349  0016                     # 803 "C:\Program Files (x86)\Microchip\xc8\v2.00\pic\include\pic16f876.h"
   350                           CCP1CON equ 017h ;# 
   351  0017                     # 861 "C:\Program Files (x86)\Microchip\xc8\v2.00\pic\include\pic16f876.h"
   352                           RCSTA equ 018h ;# 
   353  0018                     # 956 "C:\Program Files (x86)\Microchip\xc8\v2.00\pic\include\pic16f876.h"
   354                           TXREG equ 019h ;# 
   355  0019                     # 963 "C:\Program Files (x86)\Microchip\xc8\v2.00\pic\include\pic16f876.h"
   356                           RCREG equ 01Ah ;# 
   357  001A                     # 970 "C:\Program Files (x86)\Microchip\xc8\v2.00\pic\include\pic16f876.h"
   358                           CCPR2 equ 01Bh ;# 
   359  001B                     # 977 "C:\Program Files (x86)\Microchip\xc8\v2.00\pic\include\pic16f876.h"
   360                           CCPR2L equ 01Bh ;# 
   361  001B                     # 984 "C:\Program Files (x86)\Microchip\xc8\v2.00\pic\include\pic16f876.h"
   362                           CCPR2H equ 01Ch ;# 
   363  001C                     # 991 "C:\Program Files (x86)\Microchip\xc8\v2.00\pic\include\pic16f876.h"
   364                           CCP2CON equ 01Dh ;# 
   365  001D                     # 1049 "C:\Program Files (x86)\Microchip\xc8\v2.00\pic\include\pic16f876.h"
   366                           ADRESH equ 01Eh ;# 
   367  001E                     # 1056 "C:\Program Files (x86)\Microchip\xc8\v2.00\pic\include\pic16f876.h"
   368                           ADCON0 equ 01Fh ;# 
   369  001F                     # 1152 "C:\Program Files (x86)\Microchip\xc8\v2.00\pic\include\pic16f876.h"
   370                           OPTION_REG equ 081h ;# 
   371  0081                     # 1222 "C:\Program Files (x86)\Microchip\xc8\v2.00\pic\include\pic16f876.h"
   372                           TRISA equ 085h ;# 
   373  0085                     # 1272 "C:\Program Files (x86)\Microchip\xc8\v2.00\pic\include\pic16f876.h"
   374                           TRISB equ 086h ;# 
   375  0086                     # 1334 "C:\Program Files (x86)\Microchip\xc8\v2.00\pic\include\pic16f876.h"
   376                           TRISC equ 087h ;# 
   377  0087                     # 1396 "C:\Program Files (x86)\Microchip\xc8\v2.00\pic\include\pic16f876.h"
   378                           PIE1 equ 08Ch ;# 
   379  008C                     # 1452 "C:\Program Files (x86)\Microchip\xc8\v2.00\pic\include\pic16f876.h"
   380                           PIE2 equ 08Dh ;# 
   381  008D                     # 1485 "C:\Program Files (x86)\Microchip\xc8\v2.00\pic\include\pic16f876.h"
   382                           PCON equ 08Eh ;# 
   383  008E                     # 1519 "C:\Program Files (x86)\Microchip\xc8\v2.00\pic\include\pic16f876.h"
   384                           SSPCON2 equ 091h ;# 
   385  0091                     # 1581 "C:\Program Files (x86)\Microchip\xc8\v2.00\pic\include\pic16f876.h"
   386                           PR2 equ 092h ;# 
   387  0092                     # 1588 "C:\Program Files (x86)\Microchip\xc8\v2.00\pic\include\pic16f876.h"
   388                           SSPADD equ 093h ;# 
   389  0093                     # 1595 "C:\Program Files (x86)\Microchip\xc8\v2.00\pic\include\pic16f876.h"
   390                           SSPSTAT equ 094h ;# 
   391  0094                     # 1764 "C:\Program Files (x86)\Microchip\xc8\v2.00\pic\include\pic16f876.h"
   392                           TXSTA equ 098h ;# 
   393  0098                     # 1845 "C:\Program Files (x86)\Microchip\xc8\v2.00\pic\include\pic16f876.h"
   394                           SPBRG equ 099h ;# 
   395  0099                     # 1852 "C:\Program Files (x86)\Microchip\xc8\v2.00\pic\include\pic16f876.h"
   396                           ADRESL equ 09Eh ;# 
   397  009E                     # 1859 "C:\Program Files (x86)\Microchip\xc8\v2.00\pic\include\pic16f876.h"
   398                           ADCON1 equ 09Fh ;# 
   399  009F                     # 1912 "C:\Program Files (x86)\Microchip\xc8\v2.00\pic\include\pic16f876.h"
   400                           EEDATA equ 010Ch ;# 
   401  010C                     # 1919 "C:\Program Files (x86)\Microchip\xc8\v2.00\pic\include\pic16f876.h"
   402                           EEADR equ 010Dh ;# 
   403  010D                     # 1926 "C:\Program Files (x86)\Microchip\xc8\v2.00\pic\include\pic16f876.h"
   404                           EEDATH equ 010Eh ;# 
   405  010E                     # 1933 "C:\Program Files (x86)\Microchip\xc8\v2.00\pic\include\pic16f876.h"
   406                           EEADRH equ 010Fh ;# 
   407  010F                     # 1940 "C:\Program Files (x86)\Microchip\xc8\v2.00\pic\include\pic16f876.h"
   408                           EECON1 equ 018Ch ;# 
   409  018C                     # 1985 "C:\Program Files (x86)\Microchip\xc8\v2.00\pic\include\pic16f876.h"
   410                           EECON2 equ 018Dh ;# 
   411  018D                     # 54 "C:\Program Files (x86)\Microchip\xc8\v2.00\pic\include\pic16f876.h"
   412                           INDF equ 00h ;# 
   413  0000                     # 61 "C:\Program Files (x86)\Microchip\xc8\v2.00\pic\include\pic16f876.h"
   414                           TMR0 equ 01h ;# 
   415  0001                     # 68 "C:\Program Files (x86)\Microchip\xc8\v2.00\pic\include\pic16f876.h"
   416                           PCL equ 02h ;# 
   417  0002                     # 75 "C:\Program Files (x86)\Microchip\xc8\v2.00\pic\include\pic16f876.h"
   418                           STATUS equ 03h ;# 
   419  0003                     # 161 "C:\Program Files (x86)\Microchip\xc8\v2.00\pic\include\pic16f876.h"
   420                           FSR equ 04h ;# 
   421  0004                     # 168 "C:\Program Files (x86)\Microchip\xc8\v2.00\pic\include\pic16f876.h"
   422                           PORTA equ 05h ;# 
   423  0005                     # 218 "C:\Program Files (x86)\Microchip\xc8\v2.00\pic\include\pic16f876.h"
   424                           PORTB equ 06h ;# 
   425  0006                     # 280 "C:\Program Files (x86)\Microchip\xc8\v2.00\pic\include\pic16f876.h"
   426                           PORTC equ 07h ;# 
   427  0007                     # 342 "C:\Program Files (x86)\Microchip\xc8\v2.00\pic\include\pic16f876.h"
   428                           PCLATH equ 0Ah ;# 
   429  000A                     # 362 "C:\Program Files (x86)\Microchip\xc8\v2.00\pic\include\pic16f876.h"
   430                           INTCON equ 0Bh ;# 
   431  000B                     # 440 "C:\Program Files (x86)\Microchip\xc8\v2.00\pic\include\pic16f876.h"
   432                           PIR1 equ 0Ch ;# 
   433  000C                     # 496 "C:\Program Files (x86)\Microchip\xc8\v2.00\pic\include\pic16f876.h"
   434                           PIR2 equ 0Dh ;# 
   435  000D                     # 529 "C:\Program Files (x86)\Microchip\xc8\v2.00\pic\include\pic16f876.h"
   436                           TMR1 equ 0Eh ;# 
   437  000E                     # 536 "C:\Program Files (x86)\Microchip\xc8\v2.00\pic\include\pic16f876.h"
   438                           TMR1L equ 0Eh ;# 
   439  000E                     # 543 "C:\Program Files (x86)\Microchip\xc8\v2.00\pic\include\pic16f876.h"
   440                           TMR1H equ 0Fh ;# 
   441  000F                     # 550 "C:\Program Files (x86)\Microchip\xc8\v2.00\pic\include\pic16f876.h"
   442                           T1CON equ 010h ;# 
   443  0010                     # 627 "C:\Program Files (x86)\Microchip\xc8\v2.00\pic\include\pic16f876.h"
   444                           TMR2 equ 011h ;# 
   445  0011                     # 634 "C:\Program Files (x86)\Microchip\xc8\v2.00\pic\include\pic16f876.h"
   446                           T2CON equ 012h ;# 
   447  0012                     # 705 "C:\Program Files (x86)\Microchip\xc8\v2.00\pic\include\pic16f876.h"
   448                           SSPBUF equ 013h ;# 
   449  0013                     # 712 "C:\Program Files (x86)\Microchip\xc8\v2.00\pic\include\pic16f876.h"
   450                           SSPCON equ 014h ;# 
   451  0014                     # 782 "C:\Program Files (x86)\Microchip\xc8\v2.00\pic\include\pic16f876.h"
   452                           CCPR1 equ 015h ;# 
   453  0015                     # 789 "C:\Program Files (x86)\Microchip\xc8\v2.00\pic\include\pic16f876.h"
   454                           CCPR1L equ 015h ;# 
   455  0015                     # 796 "C:\Program Files (x86)\Microchip\xc8\v2.00\pic\include\pic16f876.h"
   456                           CCPR1H equ 016h ;# 
   457  0016                     # 803 "C:\Program Files (x86)\Microchip\xc8\v2.00\pic\include\pic16f876.h"
   458                           CCP1CON equ 017h ;# 
   459  0017                     # 861 "C:\Program Files (x86)\Microchip\xc8\v2.00\pic\include\pic16f876.h"
   460                           RCSTA equ 018h ;# 
   461  0018                     # 956 "C:\Program Files (x86)\Microchip\xc8\v2.00\pic\include\pic16f876.h"
   462                           TXREG equ 019h ;# 
   463  0019                     # 963 "C:\Program Files (x86)\Microchip\xc8\v2.00\pic\include\pic16f876.h"
   464                           RCREG equ 01Ah ;# 
   465  001A                     # 970 "C:\Program Files (x86)\Microchip\xc8\v2.00\pic\include\pic16f876.h"
   466                           CCPR2 equ 01Bh ;# 
   467  001B                     # 977 "C:\Program Files (x86)\Microchip\xc8\v2.00\pic\include\pic16f876.h"
   468                           CCPR2L equ 01Bh ;# 
   469  001B                     # 984 "C:\Program Files (x86)\Microchip\xc8\v2.00\pic\include\pic16f876.h"
   470                           CCPR2H equ 01Ch ;# 
   471  001C                     # 991 "C:\Program Files (x86)\Microchip\xc8\v2.00\pic\include\pic16f876.h"
   472                           CCP2CON equ 01Dh ;# 
   473  001D                     # 1049 "C:\Program Files (x86)\Microchip\xc8\v2.00\pic\include\pic16f876.h"
   474                           ADRESH equ 01Eh ;# 
   475  001E                     # 1056 "C:\Program Files (x86)\Microchip\xc8\v2.00\pic\include\pic16f876.h"
   476                           ADCON0 equ 01Fh ;# 
   477  001F                     # 1152 "C:\Program Files (x86)\Microchip\xc8\v2.00\pic\include\pic16f876.h"
   478                           OPTION_REG equ 081h ;# 
   479  0081                     # 1222 "C:\Program Files (x86)\Microchip\xc8\v2.00\pic\include\pic16f876.h"
   480                           TRISA equ 085h ;# 
   481  0085                     # 1272 "C:\Program Files (x86)\Microchip\xc8\v2.00\pic\include\pic16f876.h"
   482                           TRISB equ 086h ;# 
   483  0086                     # 1334 "C:\Program Files (x86)\Microchip\xc8\v2.00\pic\include\pic16f876.h"
   484                           TRISC equ 087h ;# 
   485  0087                     # 1396 "C:\Program Files (x86)\Microchip\xc8\v2.00\pic\include\pic16f876.h"
   486                           PIE1 equ 08Ch ;# 
   487  008C                     # 1452 "C:\Program Files (x86)\Microchip\xc8\v2.00\pic\include\pic16f876.h"
   488                           PIE2 equ 08Dh ;# 
   489  008D                     # 1485 "C:\Program Files (x86)\Microchip\xc8\v2.00\pic\include\pic16f876.h"
   490                           PCON equ 08Eh ;# 
   491  008E                     # 1519 "C:\Program Files (x86)\Microchip\xc8\v2.00\pic\include\pic16f876.h"
   492                           SSPCON2 equ 091h ;# 
   493  0091                     # 1581 "C:\Program Files (x86)\Microchip\xc8\v2.00\pic\include\pic16f876.h"
   494                           PR2 equ 092h ;# 
   495  0092                     # 1588 "C:\Program Files (x86)\Microchip\xc8\v2.00\pic\include\pic16f876.h"
   496                           SSPADD equ 093h ;# 
   497  0093                     # 1595 "C:\Program Files (x86)\Microchip\xc8\v2.00\pic\include\pic16f876.h"
   498                           SSPSTAT equ 094h ;# 
   499  0094                     # 1764 "C:\Program Files (x86)\Microchip\xc8\v2.00\pic\include\pic16f876.h"
   500                           TXSTA equ 098h ;# 
   501  0098                     # 1845 "C:\Program Files (x86)\Microchip\xc8\v2.00\pic\include\pic16f876.h"
   502                           SPBRG equ 099h ;# 
   503  0099                     # 1852 "C:\Program Files (x86)\Microchip\xc8\v2.00\pic\include\pic16f876.h"
   504                           ADRESL equ 09Eh ;# 
   505  009E                     # 1859 "C:\Program Files (x86)\Microchip\xc8\v2.00\pic\include\pic16f876.h"
   506                           ADCON1 equ 09Fh ;# 
   507  009F                     # 1912 "C:\Program Files (x86)\Microchip\xc8\v2.00\pic\include\pic16f876.h"
   508                           EEDATA equ 010Ch ;# 
   509  010C                     # 1919 "C:\Program Files (x86)\Microchip\xc8\v2.00\pic\include\pic16f876.h"
   510                           EEADR equ 010Dh ;# 
   511  010D                     # 1926 "C:\Program Files (x86)\Microchip\xc8\v2.00\pic\include\pic16f876.h"
   512                           EEDATH equ 010Eh ;# 
   513  010E                     # 1933 "C:\Program Files (x86)\Microchip\xc8\v2.00\pic\include\pic16f876.h"
   514                           EEADRH equ 010Fh ;# 
   515  010F                     # 1940 "C:\Program Files (x86)\Microchip\xc8\v2.00\pic\include\pic16f876.h"
   516                           EECON1 equ 018Ch ;# 
   517  018C                     # 1985 "C:\Program Files (x86)\Microchip\xc8\v2.00\pic\include\pic16f876.h"
   518                           EECON2 equ 018Dh ;# 
   519  018D                     # 54 "C:\Program Files (x86)\Microchip\xc8\v2.00\pic\include\pic16f876.h"
   520                           INDF equ 00h ;# 
   521  0000                     # 61 "C:\Program Files (x86)\Microchip\xc8\v2.00\pic\include\pic16f876.h"
   522                           TMR0 equ 01h ;# 
   523  0001                     # 68 "C:\Program Files (x86)\Microchip\xc8\v2.00\pic\include\pic16f876.h"
   524                           PCL equ 02h ;# 
   525  0002                     # 75 "C:\Program Files (x86)\Microchip\xc8\v2.00\pic\include\pic16f876.h"
   526                           STATUS equ 03h ;# 
   527  0003                     # 161 "C:\Program Files (x86)\Microchip\xc8\v2.00\pic\include\pic16f876.h"
   528                           FSR equ 04h ;# 
   529  0004                     # 168 "C:\Program Files (x86)\Microchip\xc8\v2.00\pic\include\pic16f876.h"
   530                           PORTA equ 05h ;# 
   531  0005                     # 218 "C:\Program Files (x86)\Microchip\xc8\v2.00\pic\include\pic16f876.h"
   532                           PORTB equ 06h ;# 
   533  0006                     # 280 "C:\Program Files (x86)\Microchip\xc8\v2.00\pic\include\pic16f876.h"
   534                           PORTC equ 07h ;# 
   535  0007                     # 342 "C:\Program Files (x86)\Microchip\xc8\v2.00\pic\include\pic16f876.h"
   536                           PCLATH equ 0Ah ;# 
   537  000A                     # 362 "C:\Program Files (x86)\Microchip\xc8\v2.00\pic\include\pic16f876.h"
   538                           INTCON equ 0Bh ;# 
   539  000B                     # 440 "C:\Program Files (x86)\Microchip\xc8\v2.00\pic\include\pic16f876.h"
   540                           PIR1 equ 0Ch ;# 
   541  000C                     # 496 "C:\Program Files (x86)\Microchip\xc8\v2.00\pic\include\pic16f876.h"
   542                           PIR2 equ 0Dh ;# 
   543  000D                     # 529 "C:\Program Files (x86)\Microchip\xc8\v2.00\pic\include\pic16f876.h"
   544                           TMR1 equ 0Eh ;# 
   545  000E                     # 536 "C:\Program Files (x86)\Microchip\xc8\v2.00\pic\include\pic16f876.h"
   546                           TMR1L equ 0Eh ;# 
   547  000E                     # 543 "C:\Program Files (x86)\Microchip\xc8\v2.00\pic\include\pic16f876.h"
   548                           TMR1H equ 0Fh ;# 
   549  000F                     # 550 "C:\Program Files (x86)\Microchip\xc8\v2.00\pic\include\pic16f876.h"
   550                           T1CON equ 010h ;# 
   551  0010                     # 627 "C:\Program Files (x86)\Microchip\xc8\v2.00\pic\include\pic16f876.h"
   552                           TMR2 equ 011h ;# 
   553  0011                     # 634 "C:\Program Files (x86)\Microchip\xc8\v2.00\pic\include\pic16f876.h"
   554                           T2CON equ 012h ;# 
   555  0012                     # 705 "C:\Program Files (x86)\Microchip\xc8\v2.00\pic\include\pic16f876.h"
   556                           SSPBUF equ 013h ;# 
   557  0013                     # 712 "C:\Program Files (x86)\Microchip\xc8\v2.00\pic\include\pic16f876.h"
   558                           SSPCON equ 014h ;# 
   559  0014                     # 782 "C:\Program Files (x86)\Microchip\xc8\v2.00\pic\include\pic16f876.h"
   560                           CCPR1 equ 015h ;# 
   561  0015                     # 789 "C:\Program Files (x86)\Microchip\xc8\v2.00\pic\include\pic16f876.h"
   562                           CCPR1L equ 015h ;# 
   563  0015                     # 796 "C:\Program Files (x86)\Microchip\xc8\v2.00\pic\include\pic16f876.h"
   564                           CCPR1H equ 016h ;# 
   565  0016                     # 803 "C:\Program Files (x86)\Microchip\xc8\v2.00\pic\include\pic16f876.h"
   566                           CCP1CON equ 017h ;# 
   567  0017                     # 861 "C:\Program Files (x86)\Microchip\xc8\v2.00\pic\include\pic16f876.h"
   568                           RCSTA equ 018h ;# 
   569  0018                     # 956 "C:\Program Files (x86)\Microchip\xc8\v2.00\pic\include\pic16f876.h"
   570                           TXREG equ 019h ;# 
   571  0019                     # 963 "C:\Program Files (x86)\Microchip\xc8\v2.00\pic\include\pic16f876.h"
   572                           RCREG equ 01Ah ;# 
   573  001A                     # 970 "C:\Program Files (x86)\Microchip\xc8\v2.00\pic\include\pic16f876.h"
   574                           CCPR2 equ 01Bh ;# 
   575  001B                     # 977 "C:\Program Files (x86)\Microchip\xc8\v2.00\pic\include\pic16f876.h"
   576                           CCPR2L equ 01Bh ;# 
   577  001B                     # 984 "C:\Program Files (x86)\Microchip\xc8\v2.00\pic\include\pic16f876.h"
   578                           CCPR2H equ 01Ch ;# 
   579  001C                     # 991 "C:\Program Files (x86)\Microchip\xc8\v2.00\pic\include\pic16f876.h"
   580                           CCP2CON equ 01Dh ;# 
   581  001D                     # 1049 "C:\Program Files (x86)\Microchip\xc8\v2.00\pic\include\pic16f876.h"
   582                           ADRESH equ 01Eh ;# 
   583  001E                     # 1056 "C:\Program Files (x86)\Microchip\xc8\v2.00\pic\include\pic16f876.h"
   584                           ADCON0 equ 01Fh ;# 
   585  001F                     # 1152 "C:\Program Files (x86)\Microchip\xc8\v2.00\pic\include\pic16f876.h"
   586                           OPTION_REG equ 081h ;# 
   587  0081                     # 1222 "C:\Program Files (x86)\Microchip\xc8\v2.00\pic\include\pic16f876.h"
   588                           TRISA equ 085h ;# 
   589  0085                     # 1272 "C:\Program Files (x86)\Microchip\xc8\v2.00\pic\include\pic16f876.h"
   590                           TRISB equ 086h ;# 
   591  0086                     # 1334 "C:\Program Files (x86)\Microchip\xc8\v2.00\pic\include\pic16f876.h"
   592                           TRISC equ 087h ;# 
   593  0087                     # 1396 "C:\Program Files (x86)\Microchip\xc8\v2.00\pic\include\pic16f876.h"
   594                           PIE1 equ 08Ch ;# 
   595  008C                     # 1452 "C:\Program Files (x86)\Microchip\xc8\v2.00\pic\include\pic16f876.h"
   596                           PIE2 equ 08Dh ;# 
   597  008D                     # 1485 "C:\Program Files (x86)\Microchip\xc8\v2.00\pic\include\pic16f876.h"
   598                           PCON equ 08Eh ;# 
   599  008E                     # 1519 "C:\Program Files (x86)\Microchip\xc8\v2.00\pic\include\pic16f876.h"
   600                           SSPCON2 equ 091h ;# 
   601  0091                     # 1581 "C:\Program Files (x86)\Microchip\xc8\v2.00\pic\include\pic16f876.h"
   602                           PR2 equ 092h ;# 
   603  0092                     # 1588 "C:\Program Files (x86)\Microchip\xc8\v2.00\pic\include\pic16f876.h"
   604                           SSPADD equ 093h ;# 
   605  0093                     # 1595 "C:\Program Files (x86)\Microchip\xc8\v2.00\pic\include\pic16f876.h"
   606                           SSPSTAT equ 094h ;# 
   607  0094                     # 1764 "C:\Program Files (x86)\Microchip\xc8\v2.00\pic\include\pic16f876.h"
   608                           TXSTA equ 098h ;# 
   609  0098                     # 1845 "C:\Program Files (x86)\Microchip\xc8\v2.00\pic\include\pic16f876.h"
   610                           SPBRG equ 099h ;# 
   611  0099                     # 1852 "C:\Program Files (x86)\Microchip\xc8\v2.00\pic\include\pic16f876.h"
   612                           ADRESL equ 09Eh ;# 
   613  009E                     # 1859 "C:\Program Files (x86)\Microchip\xc8\v2.00\pic\include\pic16f876.h"
   614                           ADCON1 equ 09Fh ;# 
   615  009F                     # 1912 "C:\Program Files (x86)\Microchip\xc8\v2.00\pic\include\pic16f876.h"
   616                           EEDATA equ 010Ch ;# 
   617  010C                     # 1919 "C:\Program Files (x86)\Microchip\xc8\v2.00\pic\include\pic16f876.h"
   618                           EEADR equ 010Dh ;# 
   619  010D                     # 1926 "C:\Program Files (x86)\Microchip\xc8\v2.00\pic\include\pic16f876.h"
   620                           EEDATH equ 010Eh ;# 
   621  010E                     # 1933 "C:\Program Files (x86)\Microchip\xc8\v2.00\pic\include\pic16f876.h"
   622                           EEADRH equ 010Fh ;# 
   623  010F                     # 1940 "C:\Program Files (x86)\Microchip\xc8\v2.00\pic\include\pic16f876.h"
   624                           EECON1 equ 018Ch ;# 
   625  018C                     # 1985 "C:\Program Files (x86)\Microchip\xc8\v2.00\pic\include\pic16f876.h"
   626                           EECON2 equ 018Dh ;# 
   627  018D                     # 54 "C:\Program Files (x86)\Microchip\xc8\v2.00\pic\include\pic16f876.h"
   628                           INDF equ 00h ;# 
   629  0000                     # 61 "C:\Program Files (x86)\Microchip\xc8\v2.00\pic\include\pic16f876.h"
   630                           TMR0 equ 01h ;# 
   631  0001                     # 68 "C:\Program Files (x86)\Microchip\xc8\v2.00\pic\include\pic16f876.h"
   632                           PCL equ 02h ;# 
   633  0002                     # 75 "C:\Program Files (x86)\Microchip\xc8\v2.00\pic\include\pic16f876.h"
   634                           STATUS equ 03h ;# 
   635  0003                     # 161 "C:\Program Files (x86)\Microchip\xc8\v2.00\pic\include\pic16f876.h"
   636                           FSR equ 04h ;# 
   637  0004                     # 168 "C:\Program Files (x86)\Microchip\xc8\v2.00\pic\include\pic16f876.h"
   638                           PORTA equ 05h ;# 
   639  0005                     # 218 "C:\Program Files (x86)\Microchip\xc8\v2.00\pic\include\pic16f876.h"
   640                           PORTB equ 06h ;# 
   641  0006                     # 280 "C:\Program Files (x86)\Microchip\xc8\v2.00\pic\include\pic16f876.h"
   642                           PORTC equ 07h ;# 
   643  0007                     # 342 "C:\Program Files (x86)\Microchip\xc8\v2.00\pic\include\pic16f876.h"
   644                           PCLATH equ 0Ah ;# 
   645  000A                     # 362 "C:\Program Files (x86)\Microchip\xc8\v2.00\pic\include\pic16f876.h"
   646                           INTCON equ 0Bh ;# 
   647  000B                     # 440 "C:\Program Files (x86)\Microchip\xc8\v2.00\pic\include\pic16f876.h"
   648                           PIR1 equ 0Ch ;# 
   649  000C                     # 496 "C:\Program Files (x86)\Microchip\xc8\v2.00\pic\include\pic16f876.h"
   650                           PIR2 equ 0Dh ;# 
   651  000D                     # 529 "C:\Program Files (x86)\Microchip\xc8\v2.00\pic\include\pic16f876.h"
   652                           TMR1 equ 0Eh ;# 
   653  000E                     # 536 "C:\Program Files (x86)\Microchip\xc8\v2.00\pic\include\pic16f876.h"
   654                           TMR1L equ 0Eh ;# 
   655  000E                     # 543 "C:\Program Files (x86)\Microchip\xc8\v2.00\pic\include\pic16f876.h"
   656                           TMR1H equ 0Fh ;# 
   657  000F                     # 550 "C:\Program Files (x86)\Microchip\xc8\v2.00\pic\include\pic16f876.h"
   658                           T1CON equ 010h ;# 
   659  0010                     # 627 "C:\Program Files (x86)\Microchip\xc8\v2.00\pic\include\pic16f876.h"
   660                           TMR2 equ 011h ;# 
   661  0011                     # 634 "C:\Program Files (x86)\Microchip\xc8\v2.00\pic\include\pic16f876.h"
   662                           T2CON equ 012h ;# 
   663  0012                     # 705 "C:\Program Files (x86)\Microchip\xc8\v2.00\pic\include\pic16f876.h"
   664                           SSPBUF equ 013h ;# 
   665  0013                     # 712 "C:\Program Files (x86)\Microchip\xc8\v2.00\pic\include\pic16f876.h"
   666                           SSPCON equ 014h ;# 
   667  0014                     # 782 "C:\Program Files (x86)\Microchip\xc8\v2.00\pic\include\pic16f876.h"
   668                           CCPR1 equ 015h ;# 
   669  0015                     # 789 "C:\Program Files (x86)\Microchip\xc8\v2.00\pic\include\pic16f876.h"
   670                           CCPR1L equ 015h ;# 
   671  0015                     # 796 "C:\Program Files (x86)\Microchip\xc8\v2.00\pic\include\pic16f876.h"
   672                           CCPR1H equ 016h ;# 
   673  0016                     # 803 "C:\Program Files (x86)\Microchip\xc8\v2.00\pic\include\pic16f876.h"
   674                           CCP1CON equ 017h ;# 
   675  0017                     # 861 "C:\Program Files (x86)\Microchip\xc8\v2.00\pic\include\pic16f876.h"
   676                           RCSTA equ 018h ;# 
   677  0018                     # 956 "C:\Program Files (x86)\Microchip\xc8\v2.00\pic\include\pic16f876.h"
   678                           TXREG equ 019h ;# 
   679  0019                     # 963 "C:\Program Files (x86)\Microchip\xc8\v2.00\pic\include\pic16f876.h"
   680                           RCREG equ 01Ah ;# 
   681  001A                     # 970 "C:\Program Files (x86)\Microchip\xc8\v2.00\pic\include\pic16f876.h"
   682                           CCPR2 equ 01Bh ;# 
   683  001B                     # 977 "C:\Program Files (x86)\Microchip\xc8\v2.00\pic\include\pic16f876.h"
   684                           CCPR2L equ 01Bh ;# 
   685  001B                     # 984 "C:\Program Files (x86)\Microchip\xc8\v2.00\pic\include\pic16f876.h"
   686                           CCPR2H equ 01Ch ;# 
   687  001C                     # 991 "C:\Program Files (x86)\Microchip\xc8\v2.00\pic\include\pic16f876.h"
   688                           CCP2CON equ 01Dh ;# 
   689  001D                     # 1049 "C:\Program Files (x86)\Microchip\xc8\v2.00\pic\include\pic16f876.h"
   690                           ADRESH equ 01Eh ;# 
   691  001E                     # 1056 "C:\Program Files (x86)\Microchip\xc8\v2.00\pic\include\pic16f876.h"
   692                           ADCON0 equ 01Fh ;# 
   693  001F                     # 1152 "C:\Program Files (x86)\Microchip\xc8\v2.00\pic\include\pic16f876.h"
   694                           OPTION_REG equ 081h ;# 
   695  0081                     # 1222 "C:\Program Files (x86)\Microchip\xc8\v2.00\pic\include\pic16f876.h"
   696                           TRISA equ 085h ;# 
   697  0085                     # 1272 "C:\Program Files (x86)\Microchip\xc8\v2.00\pic\include\pic16f876.h"
   698                           TRISB equ 086h ;# 
   699  0086                     # 1334 "C:\Program Files (x86)\Microchip\xc8\v2.00\pic\include\pic16f876.h"
   700                           TRISC equ 087h ;# 
   701  0087                     # 1396 "C:\Program Files (x86)\Microchip\xc8\v2.00\pic\include\pic16f876.h"
   702                           PIE1 equ 08Ch ;# 
   703  008C                     # 1452 "C:\Program Files (x86)\Microchip\xc8\v2.00\pic\include\pic16f876.h"
   704                           PIE2 equ 08Dh ;# 
   705  008D                     # 1485 "C:\Program Files (x86)\Microchip\xc8\v2.00\pic\include\pic16f876.h"
   706                           PCON equ 08Eh ;# 
   707  008E                     # 1519 "C:\Program Files (x86)\Microchip\xc8\v2.00\pic\include\pic16f876.h"
   708                           SSPCON2 equ 091h ;# 
   709  0091                     # 1581 "C:\Program Files (x86)\Microchip\xc8\v2.00\pic\include\pic16f876.h"
   710                           PR2 equ 092h ;# 
   711  0092                     # 1588 "C:\Program Files (x86)\Microchip\xc8\v2.00\pic\include\pic16f876.h"
   712                           SSPADD equ 093h ;# 
   713  0093                     # 1595 "C:\Program Files (x86)\Microchip\xc8\v2.00\pic\include\pic16f876.h"
   714                           SSPSTAT equ 094h ;# 
   715  0094                     # 1764 "C:\Program Files (x86)\Microchip\xc8\v2.00\pic\include\pic16f876.h"
   716                           TXSTA equ 098h ;# 
   717  0098                     # 1845 "C:\Program Files (x86)\Microchip\xc8\v2.00\pic\include\pic16f876.h"
   718                           SPBRG equ 099h ;# 
   719  0099                     # 1852 "C:\Program Files (x86)\Microchip\xc8\v2.00\pic\include\pic16f876.h"
   720                           ADRESL equ 09Eh ;# 
   721  009E                     # 1859 "C:\Program Files (x86)\Microchip\xc8\v2.00\pic\include\pic16f876.h"
   722                           ADCON1 equ 09Fh ;# 
   723  009F                     # 1912 "C:\Program Files (x86)\Microchip\xc8\v2.00\pic\include\pic16f876.h"
   724                           EEDATA equ 010Ch ;# 
   725  010C                     # 1919 "C:\Program Files (x86)\Microchip\xc8\v2.00\pic\include\pic16f876.h"
   726                           EEADR equ 010Dh ;# 
   727  010D                     # 1926 "C:\Program Files (x86)\Microchip\xc8\v2.00\pic\include\pic16f876.h"
   728                           EEDATH equ 010Eh ;# 
   729  010E                     # 1933 "C:\Program Files (x86)\Microchip\xc8\v2.00\pic\include\pic16f876.h"
   730                           EEADRH equ 010Fh ;# 
   731  010F                     # 1940 "C:\Program Files (x86)\Microchip\xc8\v2.00\pic\include\pic16f876.h"
   732                           EECON1 equ 018Ch ;# 
   733  018C                     # 1985 "C:\Program Files (x86)\Microchip\xc8\v2.00\pic\include\pic16f876.h"
   734                           EECON2 equ 018Dh ;# 
   735  018D                     	FNCALL	_main,_Configure
   736                           	FNCALL	_main,_SetUnitConfig
   737                           	FNCALL	_main,_SetUnitLamps
   738                           	FNCALL	_SetUnitLamps,___bmul
   739                           	FNCALL	_SetUnitConfig,___bmul
   740                           	FNROOT	_main
   741                           	FNCALL	_isr,_BitUpdate
   742                           	FNCALL	_isr,_TimeUpdate
   743                           	FNCALL	_TimeUpdate,_StartTx
   744                           	FNCALL	_BitUpdate,i1___bmul
   745                           	FNCALL	intlevel1,_isr
   746                           	global	intlevel1
   747                           	FNROOT	intlevel1
   748                           	global	TimeUpdate@Count
   749                           	global	_SerialModeTx
   750                           	global	_Units
   751                           	global	BitUpdate@Unit
   752                           	global	BitUpdate@DataMask
   753                           	global	BitUpdate@DataByte
   754                           	global	_DataMode
   755                           	global	_TxMode
   756                           	global	_PORTAbits
   757                           _PORTAbits	set	0x5
   758  0005                     	global	_T2CONbits
   759                           _T2CONbits	set	0x12
   760  0012                     	global	_PIR1bits
   761                           _PIR1bits	set	0xC
   762  000C                     	global	_TMR0
   763                           _TMR0	set	0x1
   764  0001                     	global	_INTCONbits
   765                           _INTCONbits	set	0xB
   766  000B                     	global	_RC1
   767                           _RC1	set	0x39
   768  0039                     	global	_RA0
   769                           _RA0	set	0x28
   770  0028                     	global	_TRISAbits
   771                           _TRISAbits	set	0x85
   772  0085                     	global	_ADCON1bits
   773                           _ADCON1bits	set	0x9F
   774  009F                     	global	_PIE1bits
   775                           _PIE1bits	set	0x8C
   776  008C                     	global	_OPTION_REGbits
   777                           _OPTION_REGbits	set	0x81
   778  0081                     	global	_PR2
   779                           _PR2	set	0x92
   780  0092                     ; #config settings
   781                           global __CFG_FOSC$HS
   782                           __CFG_FOSC$HS equ 0x0
   783  0000                     global __CFG_WDTE$OFF
   784                           __CFG_WDTE$OFF equ 0x0
   785  0000                     global __CFG_PWRTE$OFF
   786                           __CFG_PWRTE$OFF equ 0x0
   787  0000                     global __CFG_CP$OFF
   788                           __CFG_CP$OFF equ 0x0
   789  0000                     global __CFG_BOREN$ON
   790                           __CFG_BOREN$ON equ 0x0
   791  0000                     global __CFG_LVP$OFF
   792                           __CFG_LVP$OFF equ 0x0
   793  0000                     global __CFG_CPD$OFF
   794                           __CFG_CPD$OFF equ 0x0
   795  0000                     global __CFG_WRT$ON
   796                           __CFG_WRT$ON equ 0x0
   797  0000                     	file	"C:\Users\abaker\AppData\Local\Temp\seic."
   798                           	line	#
   799                           psect cinit,class=CODE,delta=2
   800                           global start_initialization
   801                           start_initialization:
   802  0011                     
   803                           global __initialization
   804                           __initialization:
   805  0011                     psect	bssCOMMON,class=COMMON,space=1,noexec
   806                           global __pbssCOMMON
   807                           __pbssCOMMON:
   808  0079                     TimeUpdate@Count:
   809  0079                            ds      1
   810  0079                     
   811                           _TxBit:
   812  007A                            ds      1
   813  007A                     
   814                           _SerialModeTx:
   815  007B                            ds      1
   816  007B                     
   817                           psect	bssBANK0,class=BANK0,space=1,noexec
   818                           global __pbssBANK0
   819                           __pbssBANK0:
   820  0020                     _Units:
   821  0020                            ds      12
   822  0020                     
   823                           BitUpdate@Unit:
   824  002C                            ds      1
   825  002C                     
   826                           BitUpdate@DataMask:
   827  002D                            ds      1
   828  002D                     
   829                           BitUpdate@DataByte:
   830  002E                            ds      1
   831  002E                     
   832                           _DataMode:
   833  002F                            ds      1
   834  002F                     
   835                           _TxMode:
   836  0030                            ds      1
   837  0030                     
   838                           	file	"C:\Users\abaker\AppData\Local\Temp\seic."
   839                           	line	#
   840                           psect clrtext,class=CODE,delta=2
   841                           global clear_ram0
   842                           ;	Called with FSR containing the base address, and
   843                           ;	W with the last address+1
   844                           clear_ram0:
   845  0267                     	clrwdt			;clear the watchdog before getting into this loop
   846  0267  0064               clrloop0:
   847  0268                     	clrf	indf		;clear RAM location pointed to by FSR
   848  0268  0180               	incf	fsr,f		;increment pointer
   849  0269  0A84               	xorwf	fsr,w		;XOR with final address
   850  026A  0604               	btfsc	status,2	;have we reached the end yet?
   851  026B  1903               	retlw	0		;all done for this memory range, return
   852  026C  3400               	xorwf	fsr,w		;XOR again to restore value
   853  026D  0604               	goto	clrloop0		;do the next byte
   854  026E  2A68               
   855                           ; Clear objects allocated to COMMON
   856                           psect cinit,class=CODE,delta=2,merge=1
   857                           	clrf	((__pbssCOMMON)+0)&07Fh
   858  0011  01F9               	clrf	((__pbssCOMMON)+1)&07Fh
   859  0012  01FA               	clrf	((__pbssCOMMON)+2)&07Fh
   860  0013  01FB               ; Clear objects allocated to BANK0
   861                           psect cinit,class=CODE,delta=2,merge=1
   862                           	bcf	status, 7	;select IRP bank0
   863  0014  1383               	movlw	low(__pbssBANK0)
   864  0015  3020               	movwf	fsr
   865  0016  0084               	movlw	low((__pbssBANK0)+011h)
   866  0017  3031               	fcall	clear_ram0
   867  0018  120A  118A  2267  120A  118A  psect cinit,class=CODE,delta=2,merge=1
   868                           global end_of_initialization,__end_of__initialization
   869                           
   870                           ;End of C runtime variable initialization code
   871                           
   872                           end_of_initialization:
   873  001D                     __end_of__initialization:
   874  001D                     clrf status
   875  001D  0183               ljmp _main	;jump to C main() function
   876  001E  120A  118A  2913   psect	cstackCOMMON,class=COMMON,space=1,noexec
   877                           global __pcstackCOMMON
   878                           __pcstackCOMMON:
   879  0070                     ?_TimeUpdate:	; 1 bytes @ 0x0
   880  0070                     ??_TimeUpdate:	; 1 bytes @ 0x0
   881  0070                     ?_BitUpdate:	; 1 bytes @ 0x0
   882  0070                     ?_Configure:	; 1 bytes @ 0x0
   883  0070                     ?_StartTx:	; 1 bytes @ 0x0
   884  0070                     ??_StartTx:	; 1 bytes @ 0x0
   885  0070                     ?_isr:	; 1 bytes @ 0x0
   886  0070                     ?_main:	; 1 bytes @ 0x0
   887  0070                     ?i1___bmul:	; 1 bytes @ 0x0
   888  0070                     	global	i1___bmul@multiplicand
   889                           i1___bmul@multiplicand:	; 1 bytes @ 0x0
   890  0070                     	ds	1
   891  0070                     ??i1___bmul:	; 1 bytes @ 0x1
   892  0071                     	ds	1
   893  0071                     	global	i1___bmul@multiplier
   894                           i1___bmul@multiplier:	; 1 bytes @ 0x2
   895  0072                     	ds	1
   896  0072                     	global	i1___bmul@product
   897                           i1___bmul@product:	; 1 bytes @ 0x3
   898  0073                     	ds	1
   899  0073                     ??_BitUpdate:	; 1 bytes @ 0x4
   900  0074                     	ds	2
   901  0074                     ??_isr:	; 1 bytes @ 0x6
   902  0076                     	ds	3
   903  0076                     psect	cstackBANK0,class=BANK0,space=1,noexec
   904                           global __pcstackBANK0
   905                           __pcstackBANK0:
   906  0031                     ??_Configure:	; 1 bytes @ 0x0
   907  0031                     ?___bmul:	; 1 bytes @ 0x0
   908  0031                     	global	___bmul@multiplicand
   909                           ___bmul@multiplicand:	; 1 bytes @ 0x0
   910  0031                     	ds	1
   911  0031                     ??___bmul:	; 1 bytes @ 0x1
   912  0032                     	ds	1
   913  0032                     	global	___bmul@product
   914                           ___bmul@product:	; 1 bytes @ 0x2
   915  0033                     	ds	1
   916  0033                     	global	___bmul@multiplier
   917                           ___bmul@multiplier:	; 1 bytes @ 0x3
   918  0034                     	ds	1
   919  0034                     ?_SetUnitConfig:	; 1 bytes @ 0x4
   920  0035                     ?_SetUnitLamps:	; 1 bytes @ 0x4
   921  0035                     	global	SetUnitConfig@Address
   922                           SetUnitConfig@Address:	; 1 bytes @ 0x4
   923  0035                     	global	SetUnitLamps@LampData
   924                           SetUnitLamps@LampData:	; 1 bytes @ 0x4
   925  0035                     	ds	1
   926  0035                     ??_SetUnitLamps:	; 1 bytes @ 0x5
   927  0036                     	global	SetUnitConfig@Lamps
   928                           SetUnitConfig@Lamps:	; 1 bytes @ 0x5
   929  0036                     	ds	1
   930  0036                     ??_SetUnitConfig:	; 1 bytes @ 0x6
   931  0037                     	ds	1
   932  0037                     	global	SetUnitLamps@Unit
   933                           SetUnitLamps@Unit:	; 1 bytes @ 0x7
   934  0038                     	ds	1
   935  0038                     	global	SetUnitConfig@Unit
   936                           SetUnitConfig@Unit:	; 1 bytes @ 0x8
   937  0039                     	ds	1
   938  0039                     ??_main:	; 1 bytes @ 0x9
   939  003A                     	ds	2
   940  003A                     ;!
   941                           ;!Data Sizes:
   942                           ;!    Strings     0
   943                           ;!    Constant    0
   944                           ;!    Data        0
   945                           ;!    BSS         20
   946                           ;!    Persistent  0
   947                           ;!    Stack       0
   948                           ;!
   949                           ;!Auto Spaces:
   950                           ;!    Space          Size  Autos    Used
   951                           ;!    COMMON           14      9      12
   952                           ;!    BANK0            80     11      28
   953                           ;!    BANK1            80      0       0
   954                           ;!    BANK3            96      0       0
   955                           ;!    BANK2            96      0       0
   956                           
   957                           ;!
   958                           ;!Pointer List with Targets:
   959                           ;!
   960                           ;!    None.
   961                           
   962                           
   963                           ;!
   964                           ;!Critical Paths under _main in COMMON
   965                           ;!
   966                           ;!    None.
   967                           ;!
   968                           ;!Critical Paths under _isr in COMMON
   969                           ;!
   970                           ;!    _isr->_BitUpdate
   971                           ;!    _BitUpdate->i1___bmul
   972                           ;!
   973                           ;!Critical Paths under _main in BANK0
   974                           ;!
   975                           ;!    _main->_SetUnitConfig
   976                           ;!    _SetUnitLamps->___bmul
   977                           ;!    _SetUnitConfig->___bmul
   978                           ;!
   979                           ;!Critical Paths under _isr in BANK0
   980                           ;!
   981                           ;!    None.
   982                           ;!
   983                           ;!Critical Paths under _main in BANK1
   984                           ;!
   985                           ;!    None.
   986                           ;!
   987                           ;!Critical Paths under _isr in BANK1
   988                           ;!
   989                           ;!    None.
   990                           ;!
   991                           ;!Critical Paths under _main in BANK3
   992                           ;!
   993                           ;!    None.
   994                           ;!
   995                           ;!Critical Paths under _isr in BANK3
   996                           ;!
   997                           ;!    None.
   998                           ;!
   999                           ;!Critical Paths under _main in BANK2
  1000                           ;!
  1001                           ;!    None.
  1002                           ;!
  1003                           ;!Critical Paths under _isr in BANK2
  1004                           ;!
  1005                           ;!    None.
  1006                           
  1007 ;;
  1008 ;;Main: autosize = 0, tempsize = 2, incstack = 0, save=0
  1009 ;;
  1010                           
  1011                           ;!
  1012                           ;!Call Graph Tables:
  1013                           ;!
  1014                           ;! ---------------------------------------------------------------------------------
  1015                           ;! (Depth) Function   	        Calls       Base Space   Used Autos Params    Refs
  1016                           ;! ---------------------------------------------------------------------------------
  1017                           ;! (0) _main                                                 2     2      0    1426
  1018                           ;!                                              9 BANK0      2     2      0
  1019                           ;!                          _Configure
  1020                           ;!                      _SetUnitConfig
  1021                           ;!                       _SetUnitLamps
  1022                           ;! ---------------------------------------------------------------------------------
  1023                           ;! (1) _SetUnitLamps                                         4     3      1     539
  1024                           ;!                                              4 BANK0      4     3      1
  1025                           ;!                             ___bmul
  1026                           ;! ---------------------------------------------------------------------------------
  1027                           ;! (1) _SetUnitConfig                                        5     3      2     887
  1028                           ;!                                              4 BANK0      5     3      2
  1029                           ;!                             ___bmul
  1030                           ;! ---------------------------------------------------------------------------------
  1031                           ;! (2) ___bmul                                               4     3      1     191
  1032                           ;!                                              0 BANK0      4     3      1
  1033                           ;! ---------------------------------------------------------------------------------
  1034                           ;! (1) _Configure                                            0     0      0       0
  1035                           ;! ---------------------------------------------------------------------------------
  1036                           ;! Estimated maximum stack depth 2
  1037                           ;! ---------------------------------------------------------------------------------
  1038                           ;! (Depth) Function   	        Calls       Base Space   Used Autos Params    Refs
  1039                           ;! ---------------------------------------------------------------------------------
  1040                           ;! (3) _isr                                                  3     3      0     125
  1041                           ;!                                              6 COMMON     3     3      0
  1042                           ;!                          _BitUpdate
  1043                           ;!                         _TimeUpdate
  1044                           ;! ---------------------------------------------------------------------------------
  1045                           ;! (4) _TimeUpdate                                           1     1      0       0
  1046                           ;!                                              0 COMMON     1     1      0
  1047                           ;!                            _StartTx
  1048                           ;! ---------------------------------------------------------------------------------
  1049                           ;! (5) _StartTx                                              0     0      0       0
  1050                           ;! ---------------------------------------------------------------------------------
  1051                           ;! (4) _BitUpdate                                            2     2      0     125
  1052                           ;!                                              4 COMMON     2     2      0
  1053                           ;!                           i1___bmul
  1054                           ;! ---------------------------------------------------------------------------------
  1055                           ;! (5) i1___bmul                                             4     3      1     125
  1056                           ;!                                              0 COMMON     4     3      1
  1057                           ;! ---------------------------------------------------------------------------------
  1058                           ;! Estimated maximum stack depth 5
  1059                           ;! ---------------------------------------------------------------------------------
  1060                           ;!
  1061                           ;! Call Graph Graphs:
  1062                           ;!
  1063                           ;! _main (ROOT)
  1064                           ;!   _Configure
  1065                           ;!   _SetUnitConfig
  1066                           ;!     ___bmul
  1067                           ;!   _SetUnitLamps
  1068                           ;!     ___bmul
  1069                           ;!
  1070                           ;! _isr (ROOT)
  1071                           ;!   _BitUpdate
  1072                           ;!     i1___bmul
  1073                           ;!   _TimeUpdate
  1074                           ;!     _StartTx
  1075                           ;!
  1076                           
  1077                           ;! Address spaces:
  1078                           
  1079                           ;!Name               Size   Autos  Total    Cost      Usage
  1080                           ;!BITCOMMON            E      0       0       0        0.0%
  1081                           ;!EEDATA             100      0       0       0        0.0%
  1082                           ;!NULL                 0      0       0       0        0.0%
  1083                           ;!CODE                 0      0       0       0        0.0%
  1084                           ;!COMMON               E      9       C       1       85.7%
  1085                           ;!BITSFR0              0      0       0       1        0.0%
  1086                           ;!SFR0                 0      0       0       1        0.0%
  1087                           ;!BITSFR1              0      0       0       2        0.0%
  1088                           ;!SFR1                 0      0       0       2        0.0%
  1089                           ;!STACK                0      0       0       2        0.0%
  1090                           ;!ABS                  0      0      28       3        0.0%
  1091                           ;!BITBANK0            50      0       0       4        0.0%
  1092                           ;!BITSFR3              0      0       0       4        0.0%
  1093                           ;!SFR3                 0      0       0       4        0.0%
  1094                           ;!BANK0               50      B      1C       5       35.0%
  1095                           ;!BITSFR2              0      0       0       5        0.0%
  1096                           ;!SFR2                 0      0       0       5        0.0%
  1097                           ;!BITBANK1            50      0       0       6        0.0%
  1098                           ;!BANK1               50      0       0       7        0.0%
  1099                           ;!BITBANK3            60      0       0       8        0.0%
  1100                           ;!BANK3               60      0       0       9        0.0%
  1101                           ;!BITBANK2            60      0       0      10        0.0%
  1102                           ;!BANK2               60      0       0      11        0.0%
  1103                           ;!DATA                 0      0      28      12        0.0%
  1104                           
  1105                           	global	_main
  1106                           
  1107 ;; *************** function _main *****************
  1108 ;; Defined at:
  1109 ;;		line 22 in file "main.c"
  1110 ;; Parameters:    Size  Location     Type
  1111 ;;		None
  1112 ;; Auto vars:     Size  Location     Type
  1113 ;;		None
  1114 ;; Return value:  Size  Location     Type
  1115 ;;                  1    wreg      void 
  1116 ;; Registers used:
  1117 ;;		wreg, fsr0l, fsr0h, status,2, status,0, pclath, cstack
  1118 ;; Tracked objects:
  1119 ;;		On entry : B00/0
  1120 ;;		On exit  : 0/0
  1121 ;;		Unchanged: 0/0
  1122 ;; Data sizes:     COMMON   BANK0   BANK1   BANK3   BANK2
  1123 ;;      Params:         0       0       0       0       0
  1124 ;;      Locals:         0       0       0       0       0
  1125 ;;      Temps:          0       2       0       0       0
  1126 ;;      Totals:         0       2       0       0       0
  1127 ;;Total ram usage:        2 bytes
  1128 ;; Hardware stack levels required when called:    5
  1129 ;; This function calls:
  1130 ;;		_Configure
  1131 ;;		_SetUnitConfig
  1132 ;;		_SetUnitLamps
  1133 ;; This function is called by:
  1134 ;;		Startup code after reset
  1135 ;; This function uses a non-reentrant model
  1136 ;;
  1137                           psect	maintext,global,class=CODE,delta=2,split=1,group=0
  1138                           	file	"main.c"
  1139                           	line	22
  1140                           global __pmaintext
  1141                           __pmaintext:	;psect for function _main
  1142  0113                     psect	maintext
  1143                           	file	"main.c"
  1144                           	line	22
  1145                           	global	__size_of_main
  1146                           	__size_of_main	equ	__end_of_main-_main
  1147  0075                     	
  1148                           _main:	
  1149  0113                     ;incstack = 0
  1150                           	opt	stack 3
  1151                           ; Regs used in _main: [wreg-fsr0h+status,2+status,0+pclath+cstack]
  1152                           	line	25
  1153                           	
  1154                           l1047:	
  1155  0113                     ;main.c: 25:     Configure();
  1156                           	fcall	_Configure
  1157  0113  120A  118A  21DE  120A  118A  	line	28
  1158                           	
  1159                           l1049:	
  1160  0118                     ;main.c: 28:     SetUnitConfig( 0, 0, 8);
  1161                           	bcf	status, 5	;RP0=0, select bank0
  1162  0118  1283               	bcf	status, 6	;RP1=0, select bank0
  1163  0119  1303               	clrf	(SetUnitConfig@Address)
  1164  011A  01B5               	movlw	low(08h)
  1165  011B  3008               	movwf	(??_main+0)+0
  1166  011C  00BA               	movf	(??_main+0)+0,w
  1167  011D  083A               	movwf	(SetUnitConfig@Lamps)
  1168  011E  00B6               	movlw	low(0)
  1169  011F  3000               	fcall	_SetUnitConfig
  1170  0120  120A  118A  2188  120A  118A  	line	29
  1171                           	
  1172                           l1051:	
  1173  0125                     ;main.c: 29:     SetUnitLamps( 0,0x55);
  1174                           	movlw	low(055h)
  1175  0125  3055               	bcf	status, 5	;RP0=0, select bank0
  1176  0126  1283               	bcf	status, 6	;RP1=0, select bank0
  1177  0127  1303               	movwf	(??_main+0)+0
  1178  0128  00BA               	movf	(??_main+0)+0,w
  1179  0129  083A               	movwf	(SetUnitLamps@LampData)
  1180  012A  00B5               	movlw	low(0)
  1181  012B  3000               	fcall	_SetUnitLamps
  1182  012C  120A  118A  2237  120A  118A  	line	31
  1183                           	
  1184                           l1053:	
  1185  0131                     ;main.c: 31:     SetUnitConfig( 1, 1, 8);
  1186                           	bcf	status, 5	;RP0=0, select bank0
  1187  0131  1283               	bcf	status, 6	;RP1=0, select bank0
  1188  0132  1303               	clrf	(SetUnitConfig@Address)
  1189  0133  01B5               	incf	(SetUnitConfig@Address),f
  1190  0134  0AB5               	movlw	low(08h)
  1191  0135  3008               	movwf	(??_main+0)+0
  1192  0136  00BA               	movf	(??_main+0)+0,w
  1193  0137  083A               	movwf	(SetUnitConfig@Lamps)
  1194  0138  00B6               	movlw	low(01h)
  1195  0139  3001               	fcall	_SetUnitConfig
  1196  013A  120A  118A  2188  120A  118A  	line	32
  1197                           	
  1198                           l1055:	
  1199  013F                     ;main.c: 32:     SetUnitLamps( 1, 0xAA);
  1200                           	movlw	low(0AAh)
  1201  013F  30AA               	bcf	status, 5	;RP0=0, select bank0
  1202  0140  1283               	bcf	status, 6	;RP1=0, select bank0
  1203  0141  1303               	movwf	(??_main+0)+0
  1204  0142  00BA               	movf	(??_main+0)+0,w
  1205  0143  083A               	movwf	(SetUnitLamps@LampData)
  1206  0144  00B5               	movlw	low(01h)
  1207  0145  3001               	fcall	_SetUnitLamps
  1208  0146  120A  118A  2237  120A  118A  	line	34
  1209                           	
  1210                           l1057:	
  1211  014B                     ;main.c: 34:     SetUnitConfig( 2, 2, 8);
  1212                           	movlw	low(02h)
  1213  014B  3002               	bcf	status, 5	;RP0=0, select bank0
  1214  014C  1283               	bcf	status, 6	;RP1=0, select bank0
  1215  014D  1303               	movwf	(??_main+0)+0
  1216  014E  00BA               	movf	(??_main+0)+0,w
  1217  014F  083A               	movwf	(SetUnitConfig@Address)
  1218  0150  00B5               	movlw	low(08h)
  1219  0151  3008               	movwf	(??_main+1)+0
  1220  0152  00BB               	movf	(??_main+1)+0,w
  1221  0153  083B               	movwf	(SetUnitConfig@Lamps)
  1222  0154  00B6               	movlw	low(02h)
  1223  0155  3002               	fcall	_SetUnitConfig
  1224  0156  120A  118A  2188  120A  118A  	line	35
  1225                           	
  1226                           l1059:	
  1227  015B                     ;main.c: 35:     SetUnitLamps( 2, 0x15);
  1228                           	movlw	low(015h)
  1229  015B  3015               	bcf	status, 5	;RP0=0, select bank0
  1230  015C  1283               	bcf	status, 6	;RP1=0, select bank0
  1231  015D  1303               	movwf	(??_main+0)+0
  1232  015E  00BA               	movf	(??_main+0)+0,w
  1233  015F  083A               	movwf	(SetUnitLamps@LampData)
  1234  0160  00B5               	movlw	low(02h)
  1235  0161  3002               	fcall	_SetUnitLamps
  1236  0162  120A  118A  2237  120A  118A  	line	37
  1237                           	
  1238                           l1061:	
  1239  0167                     ;main.c: 37:     SetUnitConfig( 3, 3, 8);
  1240                           	movlw	low(03h)
  1241  0167  3003               	bcf	status, 5	;RP0=0, select bank0
  1242  0168  1283               	bcf	status, 6	;RP1=0, select bank0
  1243  0169  1303               	movwf	(??_main+0)+0
  1244  016A  00BA               	movf	(??_main+0)+0,w
  1245  016B  083A               	movwf	(SetUnitConfig@Address)
  1246  016C  00B5               	movlw	low(08h)
  1247  016D  3008               	movwf	(??_main+1)+0
  1248  016E  00BB               	movf	(??_main+1)+0,w
  1249  016F  083B               	movwf	(SetUnitConfig@Lamps)
  1250  0170  00B6               	movlw	low(03h)
  1251  0171  3003               	fcall	_SetUnitConfig
  1252  0172  120A  118A  2188  120A  118A  	line	38
  1253                           	
  1254                           l1063:	
  1255  0177                     ;main.c: 38:     SetUnitLamps( 3, 0x4D);
  1256                           	movlw	low(04Dh)
  1257  0177  304D               	bcf	status, 5	;RP0=0, select bank0
  1258  0178  1283               	bcf	status, 6	;RP1=0, select bank0
  1259  0179  1303               	movwf	(??_main+0)+0
  1260  017A  00BA               	movf	(??_main+0)+0,w
  1261  017B  083A               	movwf	(SetUnitLamps@LampData)
  1262  017C  00B5               	movlw	low(03h)
  1263  017D  3003               	fcall	_SetUnitLamps
  1264  017E  120A  118A  2237  120A  118A  	line	42
  1265                           	
  1266                           l1065:	
  1267  0183                     ;main.c: 42:     INTCONbits. GIE = 1;
  1268                           	bsf	(11),7	;volatile
  1269  0183  178B               	line	45
  1270                           ;main.c: 45:     while(1)
  1271                           	
  1272                           l32:	
  1273  0184                     	line	50
  1274                           ;main.c: 46:     {;main.c: 50:     }
  1275                           	
  1276                           l33:	
  1277  0184                     	goto	l32
  1278  0184  2984               	
  1279                           l34:	
  1280  0185                     	line	52
  1281                           	
  1282                           l35:	
  1283  0185                     	global	start
  1284                           	ljmp	start
  1285  0185  120A  118A  280E   	opt stack 0
  1286                           GLOBAL	__end_of_main
  1287                           	__end_of_main:
  1288  0188                     	signat	_main,89
  1289                           	global	_SetUnitLamps
  1290                           
  1291 ;; *************** function _SetUnitLamps *****************
  1292 ;; Defined at:
  1293 ;;		line 184 in file "user.c"
  1294 ;; Parameters:    Size  Location     Type
  1295 ;;  Unit            1    wreg     unsigned char 
  1296 ;;  LampData        1    4[BANK0 ] unsigned char 
  1297 ;; Auto vars:     Size  Location     Type
  1298 ;;  Unit            1    7[BANK0 ] unsigned char 
  1299 ;; Return value:  Size  Location     Type
  1300 ;;                  1    wreg      void 
  1301 ;; Registers used:
  1302 ;;		wreg, fsr0l, fsr0h, status,2, status,0, pclath, cstack
  1303 ;; Tracked objects:
  1304 ;;		On entry : 0/0
  1305 ;;		On exit  : 0/0
  1306 ;;		Unchanged: 0/0
  1307 ;; Data sizes:     COMMON   BANK0   BANK1   BANK3   BANK2
  1308 ;;      Params:         0       1       0       0       0
  1309 ;;      Locals:         0       1       0       0       0
  1310 ;;      Temps:          0       2       0       0       0
  1311 ;;      Totals:         0       4       0       0       0
  1312 ;;Total ram usage:        4 bytes
  1313 ;; Hardware stack levels used:    1
  1314 ;; Hardware stack levels required when called:    4
  1315 ;; This function calls:
  1316 ;;		___bmul
  1317 ;; This function is called by:
  1318 ;;		_main
  1319 ;; This function uses a non-reentrant model
  1320 ;;
  1321                           psect	text1,local,class=CODE,delta=2,merge=1,group=0
  1322                           	file	"user.c"
  1323                           	line	184
  1324                           global __ptext1
  1325                           __ptext1:	;psect for function _SetUnitLamps
  1326  0237                     psect	text1
  1327                           	file	"user.c"
  1328                           	line	184
  1329                           	global	__size_of_SetUnitLamps
  1330                           	__size_of_SetUnitLamps	equ	__end_of_SetUnitLamps-_SetUnitLamps
  1331  0018                     	
  1332                           _SetUnitLamps:	
  1333  0237                     ;incstack = 0
  1334                           	opt	stack 3
  1335                           ; Regs used in _SetUnitLamps: [wreg-fsr0h+status,2+status,0+pclath+cstack]
  1336                           ;SetUnitLamps@Unit stored from wreg
  1337                           	bcf	status, 5	;RP0=0, select bank0
  1338  0237  1283               	bcf	status, 6	;RP1=0, select bank0
  1339  0238  1303               	movwf	(SetUnitLamps@Unit)
  1340  0239  00B8               	line	186
  1341                           	
  1342                           l1029:	
  1343  023A                     ;user.c: 184: void SetUnitLamps(uint8_t Unit, uint8_t LampData );user.c: 185: {;user.c: 
                                 186:     Units[Unit].LampData = LampData;
  1344                           	movf	(SetUnitLamps@LampData),w
  1345  023A  0835               	movwf	(??_SetUnitLamps+0)+0
  1346  023B  00B6               	movlw	low(03h)
  1347  023C  3003               	movwf	(??_SetUnitLamps+1)+0
  1348  023D  00B7               	movf	(??_SetUnitLamps+1)+0,w
  1349  023E  0837               	movwf	(___bmul@multiplicand)
  1350  023F  00B1               	movf	(SetUnitLamps@Unit),w
  1351  0240  0838               	fcall	___bmul
  1352  0241  120A  118A  2203  120A  118A  	addlw	02h
  1353  0246  3E02               	addlw	low(_Units|((0x0)<<8))&0ffh
  1354  0247  3E20               	movwf	fsr0
  1355  0248  0084               	bcf	status, 5	;RP0=0, select bank0
  1356  0249  1283               	bcf	status, 6	;RP1=0, select bank0
  1357  024A  1303               	movf	(??_SetUnitLamps+0)+0,w
  1358  024B  0836               	bcf	status, 7	;select IRP bank0
  1359  024C  1383               	movwf	indf
  1360  024D  0080               	line	187
  1361                           	
  1362                           l119:	
  1363  024E                     	return
  1364  024E  0008               	opt stack 0
  1365                           GLOBAL	__end_of_SetUnitLamps
  1366                           	__end_of_SetUnitLamps:
  1367  024F                     	signat	_SetUnitLamps,8313
  1368                           	global	_SetUnitConfig
  1369                           
  1370 ;; *************** function _SetUnitConfig *****************
  1371 ;; Defined at:
  1372 ;;		line 178 in file "user.c"
  1373 ;; Parameters:    Size  Location     Type
  1374 ;;  Unit            1    wreg     unsigned char 
  1375 ;;  Address         1    4[BANK0 ] unsigned char 
  1376 ;;  Lamps           1    5[BANK0 ] unsigned char 
  1377 ;; Auto vars:     Size  Location     Type
  1378 ;;  Unit            1    8[BANK0 ] unsigned char 
  1379 ;; Return value:  Size  Location     Type
  1380 ;;                  1    wreg      void 
  1381 ;; Registers used:
  1382 ;;		wreg, fsr0l, fsr0h, status,2, status,0, pclath, cstack
  1383 ;; Tracked objects:
  1384 ;;		On entry : 0/0
  1385 ;;		On exit  : 0/0
  1386 ;;		Unchanged: 0/0
  1387 ;; Data sizes:     COMMON   BANK0   BANK1   BANK3   BANK2
  1388 ;;      Params:         0       2       0       0       0
  1389 ;;      Locals:         0       1       0       0       0
  1390 ;;      Temps:          0       2       0       0       0
  1391 ;;      Totals:         0       5       0       0       0
  1392 ;;Total ram usage:        5 bytes
  1393 ;; Hardware stack levels used:    1
  1394 ;; Hardware stack levels required when called:    4
  1395 ;; This function calls:
  1396 ;;		___bmul
  1397 ;; This function is called by:
  1398 ;;		_main
  1399 ;; This function uses a non-reentrant model
  1400 ;;
  1401                           psect	text2,local,class=CODE,delta=2,merge=1,group=0
  1402                           	line	178
  1403                           global __ptext2
  1404                           __ptext2:	;psect for function _SetUnitConfig
  1405  0188                     psect	text2
  1406                           	file	"user.c"
  1407                           	line	178
  1408                           	global	__size_of_SetUnitConfig
  1409                           	__size_of_SetUnitConfig	equ	__end_of_SetUnitConfig-_SetUnitConfig
  1410  002B                     	
  1411                           _SetUnitConfig:	
  1412  0188                     ;incstack = 0
  1413                           	opt	stack 3
  1414                           ; Regs used in _SetUnitConfig: [wreg-fsr0h+status,2+status,0+pclath+cstack]
  1415                           ;SetUnitConfig@Unit stored from wreg
  1416                           	bcf	status, 5	;RP0=0, select bank0
  1417  0188  1283               	bcf	status, 6	;RP1=0, select bank0
  1418  0189  1303               	movwf	(SetUnitConfig@Unit)
  1419  018A  00B9               	line	180
  1420                           	
  1421                           l1027:	
  1422  018B                     ;user.c: 178: void SetUnitConfig(uint8_t Unit, uint8_t Address, uint8_t Lamps );user.c: 
                                 179: {;user.c: 180:     Units[Unit].Address = Address;
  1423                           	movf	(SetUnitConfig@Address),w
  1424  018B  0835               	movwf	(??_SetUnitConfig+0)+0
  1425  018C  00B7               	movlw	low(03h)
  1426  018D  3003               	movwf	(??_SetUnitConfig+1)+0
  1427  018E  00B8               	movf	(??_SetUnitConfig+1)+0,w
  1428  018F  0838               	movwf	(___bmul@multiplicand)
  1429  0190  00B1               	movf	(SetUnitConfig@Unit),w
  1430  0191  0839               	fcall	___bmul
  1431  0192  120A  118A  2203  120A  118A  	addlw	low(_Units|((0x0)<<8))&0ffh
  1432  0197  3E20               	movwf	fsr0
  1433  0198  0084               	bcf	status, 5	;RP0=0, select bank0
  1434  0199  1283               	bcf	status, 6	;RP1=0, select bank0
  1435  019A  1303               	movf	(??_SetUnitConfig+0)+0,w
  1436  019B  0837               	bcf	status, 7	;select IRP bank0
  1437  019C  1383               	movwf	indf
  1438  019D  0080               	line	181
  1439                           ;user.c: 181:     Units[Unit].Lamps = Lamps;
  1440                           	movf	(SetUnitConfig@Lamps),w
  1441  019E  0836               	movwf	(??_SetUnitConfig+0)+0
  1442  019F  00B7               	movlw	low(03h)
  1443  01A0  3003               	movwf	(??_SetUnitConfig+1)+0
  1444  01A1  00B8               	movf	(??_SetUnitConfig+1)+0,w
  1445  01A2  0838               	movwf	(___bmul@multiplicand)
  1446  01A3  00B1               	movf	(SetUnitConfig@Unit),w
  1447  01A4  0839               	fcall	___bmul
  1448  01A5  120A  118A  2203  120A  118A  	addlw	01h
  1449  01AA  3E01               	addlw	low(_Units|((0x0)<<8))&0ffh
  1450  01AB  3E20               	movwf	fsr0
  1451  01AC  0084               	bcf	status, 5	;RP0=0, select bank0
  1452  01AD  1283               	bcf	status, 6	;RP1=0, select bank0
  1453  01AE  1303               	movf	(??_SetUnitConfig+0)+0,w
  1454  01AF  0837               	bcf	status, 7	;select IRP bank0
  1455  01B0  1383               	movwf	indf
  1456  01B1  0080               	line	182
  1457                           	
  1458                           l116:	
  1459  01B2                     	return
  1460  01B2  0008               	opt stack 0
  1461                           GLOBAL	__end_of_SetUnitConfig
  1462                           	__end_of_SetUnitConfig:
  1463  01B3                     	signat	_SetUnitConfig,12409
  1464                           	global	___bmul
  1465                           
  1466 ;; *************** function ___bmul *****************
  1467 ;; Defined at:
  1468 ;;		line 4 in file "C:\Program Files (x86)\Microchip\xc8\v2.00\pic\sources\c90\common\Umul8.c"
  1469 ;; Parameters:    Size  Location     Type
  1470 ;;  multiplier      1    wreg     unsigned char 
  1471 ;;  multiplicand    1    0[BANK0 ] unsigned char 
  1472 ;; Auto vars:     Size  Location     Type
  1473 ;;  multiplier      1    3[BANK0 ] unsigned char 
  1474 ;;  product         1    2[BANK0 ] unsigned char 
  1475 ;; Return value:  Size  Location     Type
  1476 ;;                  1    wreg      unsigned char 
  1477 ;; Registers used:
  1478 ;;		wreg, status,2, status,0
  1479 ;; Tracked objects:
  1480 ;;		On entry : 0/0
  1481 ;;		On exit  : 0/0
  1482 ;;		Unchanged: 0/0
  1483 ;; Data sizes:     COMMON   BANK0   BANK1   BANK3   BANK2
  1484 ;;      Params:         0       1       0       0       0
  1485 ;;      Locals:         0       2       0       0       0
  1486 ;;      Temps:          0       1       0       0       0
  1487 ;;      Totals:         0       4       0       0       0
  1488 ;;Total ram usage:        4 bytes
  1489 ;; Hardware stack levels used:    1
  1490 ;; Hardware stack levels required when called:    3
  1491 ;; This function calls:
  1492 ;;		Nothing
  1493 ;; This function is called by:
  1494 ;;		_BitUpdate
  1495 ;;		_SetUnitConfig
  1496 ;;		_SetUnitLamps
  1497 ;; This function uses a non-reentrant model
  1498 ;;
  1499                           psect	text3,local,class=CODE,delta=2,merge=1,group=1
  1500                           	file	"C:\Program Files (x86)\Microchip\xc8\v2.00\pic\sources\c90\common\Umul8.c"
  1501                           	line	4
  1502                           global __ptext3
  1503                           __ptext3:	;psect for function ___bmul
  1504  0203                     psect	text3
  1505                           	file	"C:\Program Files (x86)\Microchip\xc8\v2.00\pic\sources\c90\common\Umul8.c"
  1506                           	line	4
  1507                           	global	__size_of___bmul
  1508                           	__size_of___bmul	equ	__end_of___bmul-___bmul
  1509  001B                     	
  1510                           ___bmul:	
  1511  0203                     ;incstack = 0
  1512                           	opt	stack 3
  1513                           ; Regs used in ___bmul: [wreg+status,2+status,0]
  1514                           ;___bmul@multiplier stored from wreg
  1515                           	bcf	status, 5	;RP0=0, select bank0
  1516  0203  1283               	bcf	status, 6	;RP1=0, select bank0
  1517  0204  1303               	movwf	(___bmul@multiplier)
  1518  0205  00B4               	line	6
  1519                           	
  1520                           l883:	
  1521  0206                     	clrf	(___bmul@product)
  1522  0206  01B3               	goto	l885
  1523  0207  2A08               	line	42
  1524                           	
  1525                           l231:	
  1526  0208                     	line	43
  1527                           	
  1528                           l885:	
  1529  0208                     	btfss	(___bmul@multiplier),(0)&7
  1530  0208  1C34               	goto	u231
  1531  0209  2A0B               	goto	u230
  1532  020A  2A0C               u231:
  1533  020B                     	goto	l889
  1534  020B  2A11               u230:
  1535  020C                     	line	44
  1536                           	
  1537                           l887:	
  1538  020C                     	movf	(___bmul@multiplicand),w
  1539  020C  0831               	movwf	(??___bmul+0)+0
  1540  020D  00B2               	movf	(??___bmul+0)+0,w
  1541  020E  0832               	addwf	(___bmul@product),f
  1542  020F  07B3               	goto	l889
  1543  0210  2A11               	
  1544                           l232:	
  1545  0211                     	line	45
  1546                           	
  1547                           l889:	
  1548  0211                     	clrc
  1549  0211  1003               	rlf	(___bmul@multiplicand),f
  1550  0212  0DB1               
  1551                           	line	46
  1552                           	
  1553                           l891:	
  1554  0213                     	clrc
  1555  0213  1003               	rrf	(___bmul@multiplier),f
  1556  0214  0CB4               
  1557                           	line	47
  1558                           	movf	((___bmul@multiplier)),w
  1559  0215  0834               	btfss	status,2
  1560  0216  1D03               	goto	u241
  1561  0217  2A19               	goto	u240
  1562  0218  2A1A               u241:
  1563  0219                     	goto	l885
  1564  0219  2A08               u240:
  1565  021A                     	goto	l893
  1566  021A  2A1B               	
  1567                           l233:	
  1568  021B                     	line	50
  1569                           	
  1570                           l893:	
  1571  021B                     	movf	(___bmul@product),w
  1572  021B  0833               	goto	l234
  1573  021C  2A1D               	
  1574                           l895:	
  1575  021D                     	line	51
  1576                           	
  1577                           l234:	
  1578  021D                     	return
  1579  021D  0008               	opt stack 0
  1580                           GLOBAL	__end_of___bmul
  1581                           	__end_of___bmul:
  1582  021E                     	signat	___bmul,8313
  1583                           	global	_Configure
  1584                           
  1585 ;; *************** function _Configure *****************
  1586 ;; Defined at:
  1587 ;;		line 12 in file "system.c"
  1588 ;; Parameters:    Size  Location     Type
  1589 ;;		None
  1590 ;; Auto vars:     Size  Location     Type
  1591 ;;		None
  1592 ;; Return value:  Size  Location     Type
  1593 ;;                  1    wreg      void 
  1594 ;; Registers used:
  1595 ;;		wreg, status,2, status,0
  1596 ;; Tracked objects:
  1597 ;;		On entry : 0/0
  1598 ;;		On exit  : 0/0
  1599 ;;		Unchanged: 0/0
  1600 ;; Data sizes:     COMMON   BANK0   BANK1   BANK3   BANK2
  1601 ;;      Params:         0       0       0       0       0
  1602 ;;      Locals:         0       0       0       0       0
  1603 ;;      Temps:          0       0       0       0       0
  1604 ;;      Totals:         0       0       0       0       0
  1605 ;;Total ram usage:        0 bytes
  1606 ;; Hardware stack levels used:    1
  1607 ;; Hardware stack levels required when called:    3
  1608 ;; This function calls:
  1609 ;;		Nothing
  1610 ;; This function is called by:
  1611 ;;		_main
  1612 ;; This function uses a non-reentrant model
  1613 ;;
  1614                           psect	text4,local,class=CODE,delta=2,merge=1,group=0
  1615                           	file	"system.c"
  1616                           	line	12
  1617                           global __ptext4
  1618                           __ptext4:	;psect for function _Configure
  1619  01DE                     psect	text4
  1620                           	file	"system.c"
  1621                           	line	12
  1622                           	global	__size_of_Configure
  1623                           	__size_of_Configure	equ	__end_of_Configure-_Configure
  1624  0025                     	
  1625                           _Configure:	
  1626  01DE                     ;incstack = 0
  1627                           	opt	stack 4
  1628                           ; Regs used in _Configure: [wreg+status,2+status,0]
  1629                           	line	16
  1630                           	
  1631                           l1003:	
  1632  01DE                     ;system.c: 16:     OPTION_REGbits.T0CS = 0;
  1633                           	bsf	status, 5	;RP0=1, select bank1
  1634  01DE  1683               	bcf	status, 6	;RP1=0, select bank1
  1635  01DF  1303               	bcf	(129)^080h,5	;volatile
  1636  01E0  1281               	line	17
  1637                           ;system.c: 17:     OPTION_REGbits.PSA = 0;
  1638                           	bcf	(129)^080h,3	;volatile
  1639  01E1  1181               	line	18
  1640                           	
  1641                           l1005:	
  1642  01E2                     ;system.c: 18:     OPTION_REGbits.PS = 7;
  1643                           	movlw	(07h & ((1<<3)-1))<<0
  1644  01E2  3007               	iorwf	(129)^080h,f	;volatile
  1645  01E3  0481               	line	19
  1646                           	
  1647                           l1007:	
  1648  01E4                     ;system.c: 19:     TMR0 = 61;
  1649                           	movlw	low(03Dh)
  1650  01E4  303D               	bcf	status, 5	;RP0=0, select bank0
  1651  01E5  1283               	bcf	status, 6	;RP1=0, select bank0
  1652  01E6  1303               	movwf	(1)	;volatile
  1653  01E7  0081               	line	20
  1654                           	
  1655                           l1009:	
  1656  01E8                     ;system.c: 20:     INTCONbits.T0IE = 1;
  1657                           	bsf	(11),5	;volatile
  1658  01E8  168B               	line	24
  1659                           	
  1660                           l1011:	
  1661  01E9                     ;system.c: 24:     T2CONbits.T2CKPS = 0;
  1662                           	movlw	((0 & ((1<<2)-1))<<0)|not (((1<<2)-1)<<0)
  1663  01E9  30FC               	andwf	(18),f	;volatile
  1664  01EA  0592               	line	25
  1665                           	
  1666                           l1013:	
  1667  01EB                     ;system.c: 25:     T2CONbits.TOUTPS = 0;
  1668                           	movlw	((0 & ((1<<4)-1))<<3)|not (((1<<4)-1)<<3)
  1669  01EB  3087               	andwf	(18),f	;volatile
  1670  01EC  0592               	line	26
  1671                           	
  1672                           l1015:	
  1673  01ED                     ;system.c: 26:     PR2 = 100;
  1674                           	movlw	low(064h)
  1675  01ED  3064               	bsf	status, 5	;RP0=1, select bank1
  1676  01EE  1683               	bcf	status, 6	;RP1=0, select bank1
  1677  01EF  1303               	movwf	(146)^080h	;volatile
  1678  01F0  0092               	line	27
  1679                           	
  1680                           l1017:	
  1681  01F1                     ;system.c: 27:     T2CONbits.TMR2ON = 1;
  1682                           	bcf	status, 5	;RP0=0, select bank0
  1683  01F1  1283               	bcf	status, 6	;RP1=0, select bank0
  1684  01F2  1303               	bsf	(18),2	;volatile
  1685  01F3  1512               	line	30
  1686                           	
  1687                           l1019:	
  1688  01F4                     ;system.c: 30:     INTCONbits.PEIE = 1;
  1689                           	bsf	(11),6	;volatile
  1690  01F4  170B               	line	31
  1691                           	
  1692                           l1021:	
  1693  01F5                     ;system.c: 31:     PIE1bits.TMR2IE = 1;
  1694                           	bsf	status, 5	;RP0=1, select bank1
  1695  01F5  1683               	bcf	status, 6	;RP1=0, select bank1
  1696  01F6  1303               	bsf	(140)^080h,1	;volatile
  1697  01F7  148C               	line	34
  1698                           ;system.c: 34:     ADCON1bits.PCFG = 0x6;
  1699                           	movf	(159)^080h,w	;volatile
  1700  01F8  081F               	andlw	not (((1<<4)-1)<<0)
  1701  01F9  39F0               	iorlw	(06h & ((1<<4)-1))<<0
  1702  01FA  3806               	movwf	(159)^080h	;volatile
  1703  01FB  009F               	line	37
  1704                           	
  1705                           l1023:	
  1706  01FC                     ;system.c: 37:     PORTAbits.RA0 = 0;
  1707                           	bcf	status, 5	;RP0=0, select bank0
  1708  01FC  1283               	bcf	status, 6	;RP1=0, select bank0
  1709  01FD  1303               	bcf	(5),0	;volatile
  1710  01FE  1005               	line	38
  1711                           	
  1712                           l1025:	
  1713  01FF                     ;system.c: 38:     TRISAbits.TRISA0 = 0;
  1714                           	bsf	status, 5	;RP0=1, select bank1
  1715  01FF  1683               	bcf	status, 6	;RP1=0, select bank1
  1716  0200  1303               	bcf	(133)^080h,0	;volatile
  1717  0201  1005               	line	39
  1718                           	
  1719                           l56:	
  1720  0202                     	return
  1721  0202  0008               	opt stack 0
  1722                           GLOBAL	__end_of_Configure
  1723                           	__end_of_Configure:
  1724  0203                     	signat	_Configure,89
  1725                           	global	_isr
  1726                           
  1727 ;; *************** function _isr *****************
  1728 ;; Defined at:
  1729 ;;		line 17 in file "interrupts.c"
  1730 ;; Parameters:    Size  Location     Type
  1731 ;;		None
  1732 ;; Auto vars:     Size  Location     Type
  1733 ;;		None
  1734 ;; Return value:  Size  Location     Type
  1735 ;;                  1    wreg      void 
  1736 ;; Registers used:
  1737 ;;		wreg, fsr0l, fsr0h, status,2, status,0, pclath, cstack
  1738 ;; Tracked objects:
  1739 ;;		On entry : 0/0
  1740 ;;		On exit  : 0/0
  1741 ;;		Unchanged: 0/0
  1742 ;; Data sizes:     COMMON   BANK0   BANK1   BANK3   BANK2
  1743 ;;      Params:         0       0       0       0       0
  1744 ;;      Locals:         0       0       0       0       0
  1745 ;;      Temps:          3       0       0       0       0
  1746 ;;      Totals:         3       0       0       0       0
  1747 ;;Total ram usage:        3 bytes
  1748 ;; Hardware stack levels used:    1
  1749 ;; Hardware stack levels required when called:    2
  1750 ;; This function calls:
  1751 ;;		_BitUpdate
  1752 ;;		_TimeUpdate
  1753 ;; This function is called by:
  1754 ;;		Interrupt level 1
  1755 ;; This function uses a non-reentrant model
  1756 ;;
  1757                           psect	text5,local,class=CODE,delta=2,merge=1,group=0
  1758                           	file	"interrupts.c"
  1759                           	line	17
  1760                           global __ptext5
  1761                           __ptext5:	;psect for function _isr
  1762  01B3                     psect	text5
  1763                           	file	"interrupts.c"
  1764                           	line	17
  1765                           	global	__size_of_isr
  1766                           	__size_of_isr	equ	__end_of_isr-_isr
  1767  002B                     	
  1768                           _isr:	
  1769  01B3                     ;incstack = 0
  1770                           	opt	stack 3
  1771                           ; Regs used in _isr: [wreg-fsr0h+status,2+status,0+pclath+cstack]
  1772                           psect	intentry,class=CODE,delta=2
  1773                           global __pintentry
  1774                           __pintentry:
  1775  0004                     global interrupt_function
  1776                           interrupt_function:
  1777  0004                     	global saved_w
  1778                           	saved_w	set	btemp+0
  1779  007E                     	movwf	saved_w
  1780  0004  00FE               	swapf	status,w
  1781  0005  0E03               	movwf	(??_isr+0)
  1782  0006  00F6               	movf	fsr0,w
  1783  0007  0804               	movwf	(??_isr+1)
  1784  0008  00F7               	movf	pclath,w
  1785  0009  080A               	movwf	(??_isr+2)
  1786  000A  00F8               	ljmp	_isr
  1787  000B  120A  118A  29B3   psect	text5
  1788                           	line	19
  1789                           	
  1790                           i1l1031:	
  1791  01B3                     ;interrupts.c: 19:     if (INTCONbits.T0IF==1)
  1792                           	btfss	(11),2	;volatile
  1793  01B3  1D0B               	goto	u43_21
  1794  01B4  29B6               	goto	u43_20
  1795  01B5  29B7               u43_21:
  1796  01B6                     	goto	i1l1039
  1797  01B6  29C2               u43_20:
  1798  01B7                     	line	21
  1799                           	
  1800                           i1l1033:	
  1801  01B7                     ;interrupts.c: 20:     {;interrupts.c: 21:         TMR0 = 61;
  1802                           	movlw	low(03Dh)
  1803  01B7  303D               	bcf	status, 5	;RP0=0, select bank0
  1804  01B8  1283               	bcf	status, 6	;RP1=0, select bank0
  1805  01B9  1303               	movwf	(1)	;volatile
  1806  01BA  0081               	line	22
  1807                           	
  1808                           i1l1035:	
  1809  01BB                     ;interrupts.c: 22:         INTCONbits.T0IF=0;
  1810                           	bcf	(11),2	;volatile
  1811  01BB  110B               	line	23
  1812                           	
  1813                           i1l1037:	
  1814  01BC                     ;interrupts.c: 23:         TimeUpdate();
  1815                           	fcall	_TimeUpdate
  1816  01BC  120A  118A  224F  120A  118A  	goto	i1l1039
  1817  01C1  29C2               	line	24
  1818                           ;interrupts.c: 24:     }
  1819                           	
  1820                           i1l17:	
  1821  01C2                     	line	26
  1822                           	
  1823                           i1l1039:	
  1824  01C2                     ;interrupts.c: 26:     if (PIR1bits.TMR2IF==1)
  1825                           	bcf	status, 5	;RP0=0, select bank0
  1826  01C2  1283               	bcf	status, 6	;RP1=0, select bank0
  1827  01C3  1303               	btfss	(12),1	;volatile
  1828  01C4  1C8C               	goto	u44_21
  1829  01C5  29C7               	goto	u44_20
  1830  01C6  29C8               u44_21:
  1831  01C7                     	goto	i1l19
  1832  01C7  29D5               u44_20:
  1833  01C8                     	line	28
  1834                           	
  1835                           i1l1041:	
  1836  01C8                     ;interrupts.c: 27:     {;interrupts.c: 28:         PR2 = 100;
  1837                           	movlw	low(064h)
  1838  01C8  3064               	bsf	status, 5	;RP0=1, select bank1
  1839  01C9  1683               	bcf	status, 6	;RP1=0, select bank1
  1840  01CA  1303               	movwf	(146)^080h	;volatile
  1841  01CB  0092               	line	29
  1842                           	
  1843                           i1l1043:	
  1844  01CC                     ;interrupts.c: 29:         PIR1bits.TMR2IF=0;
  1845                           	bcf	status, 5	;RP0=0, select bank0
  1846  01CC  1283               	bcf	status, 6	;RP1=0, select bank0
  1847  01CD  1303               	bcf	(12),1	;volatile
  1848  01CE  108C               	line	30
  1849                           	
  1850                           i1l1045:	
  1851  01CF                     ;interrupts.c: 30:         BitUpdate();
  1852                           	fcall	_BitUpdate
  1853  01CF  120A  118A  2021  120A  118A  	goto	i1l19
  1854  01D4  29D5               	line	31
  1855                           ;interrupts.c: 31:     }
  1856                           	
  1857                           i1l18:	
  1858  01D5                     	line	33
  1859                           	
  1860                           i1l19:	
  1861  01D5                     	movf	(??_isr+2),w
  1862  01D5  0878               	movwf	pclath
  1863  01D6  008A               	movf	(??_isr+1),w
  1864  01D7  0877               	movwf	fsr0
  1865  01D8  0084               	swapf	(??_isr+0)^0FFFFFF80h,w
  1866  01D9  0E76               	movwf	status
  1867  01DA  0083               	swapf	saved_w,f
  1868  01DB  0EFE               	swapf	saved_w,w
  1869  01DC  0E7E               	retfie
  1870  01DD  0009               	opt stack 0
  1871                           GLOBAL	__end_of_isr
  1872                           	__end_of_isr:
  1873  01DE                     	signat	_isr,89
  1874                           	global	_TimeUpdate
  1875                           
  1876 ;; *************** function _TimeUpdate *****************
  1877 ;; Defined at:
  1878 ;;		line 43 in file "user.c"
  1879 ;; Parameters:    Size  Location     Type
  1880 ;;		None
  1881 ;; Auto vars:     Size  Location     Type
  1882 ;;		None
  1883 ;; Return value:  Size  Location     Type
  1884 ;;                  1    wreg      void 
  1885 ;; Registers used:
  1886 ;;		wreg, status,2, status,0, pclath, cstack
  1887 ;; Tracked objects:
  1888 ;;		On entry : 0/0
  1889 ;;		On exit  : 0/0
  1890 ;;		Unchanged: 0/0
  1891 ;; Data sizes:     COMMON   BANK0   BANK1   BANK3   BANK2
  1892 ;;      Params:         0       0       0       0       0
  1893 ;;      Locals:         0       0       0       0       0
  1894 ;;      Temps:          1       0       0       0       0
  1895 ;;      Totals:         1       0       0       0       0
  1896 ;;Total ram usage:        1 bytes
  1897 ;; Hardware stack levels used:    1
  1898 ;; Hardware stack levels required when called:    1
  1899 ;; This function calls:
  1900 ;;		_StartTx
  1901 ;; This function is called by:
  1902 ;;		_isr
  1903 ;; This function uses a non-reentrant model
  1904 ;;
  1905                           psect	text6,local,class=CODE,delta=2,merge=1,group=0
  1906                           	file	"user.c"
  1907                           	line	43
  1908                           global __ptext6
  1909                           __ptext6:	;psect for function _TimeUpdate
  1910  024F                     psect	text6
  1911                           	file	"user.c"
  1912                           	line	43
  1913                           	global	__size_of_TimeUpdate
  1914                           	__size_of_TimeUpdate	equ	__end_of_TimeUpdate-_TimeUpdate
  1915  0018                     	
  1916                           _TimeUpdate:	
  1917  024F                     ;incstack = 0
  1918                           	opt	stack 3
  1919                           ; Regs used in _TimeUpdate: [wreg+status,2+status,0+pclath+cstack]
  1920                           	line	47
  1921                           	
  1922                           i1l911:	
  1923  024F                     ;user.c: 45:     static uint8_t Count = 0;;user.c: 47:     if (Count++ == 9)
  1924                           	movlw	low(01h)
  1925  024F  3001               	movwf	(??_TimeUpdate+0)+0
  1926  0250  00F0               	movf	(??_TimeUpdate+0)+0,w
  1927  0251  0870               	addwf	(TimeUpdate@Count),f
  1928  0252  07F9               		movlw	10
  1929  0253  300A               	xorwf	(((TimeUpdate@Count))),w
  1930  0254  0679               	btfss	status,2
  1931  0255  1D03               	goto	u27_21
  1932  0256  2A58               	goto	u27_20
  1933  0257  2A59               u27_21:
  1934  0258                     	goto	i1l915
  1935  0258  2A5B               u27_20:
  1936  0259                     	line	48
  1937                           	
  1938                           i1l913:	
  1939  0259                     ;user.c: 48:         Count = 0;
  1940                           	clrf	(TimeUpdate@Count)
  1941  0259  01F9               	goto	i1l915
  1942  025A  2A5B               	
  1943                           i1l77:	
  1944  025B                     	line	51
  1945                           	
  1946                           i1l915:	
  1947  025B                     ;user.c: 51:     if (Count == 0)
  1948                           	movf	((TimeUpdate@Count)),w
  1949  025B  0879               	btfss	status,2
  1950  025C  1D03               	goto	u28_21
  1951  025D  2A5F               	goto	u28_20
  1952  025E  2A60               u28_21:
  1953  025F                     	goto	i1l79
  1954  025F  2A66               u28_20:
  1955  0260                     	line	53
  1956                           	
  1957                           i1l917:	
  1958  0260                     ;user.c: 52:     {;user.c: 53:         StartTx();
  1959                           	fcall	_StartTx
  1960  0260  120A  118A  226F  120A  118A  	goto	i1l79
  1961  0265  2A66               	line	54
  1962                           ;user.c: 54:     }
  1963                           	
  1964                           i1l78:	
  1965  0266                     	line	55
  1966                           	
  1967                           i1l79:	
  1968  0266                     	return
  1969  0266  0008               	opt stack 0
  1970                           GLOBAL	__end_of_TimeUpdate
  1971                           	__end_of_TimeUpdate:
  1972  0267                     	signat	_TimeUpdate,89
  1973                           	global	_StartTx
  1974                           
  1975 ;; *************** function _StartTx *****************
  1976 ;; Defined at:
  1977 ;;		line 190 in file "user.c"
  1978 ;; Parameters:    Size  Location     Type
  1979 ;;		None
  1980 ;; Auto vars:     Size  Location     Type
  1981 ;;		None
  1982 ;; Return value:  Size  Location     Type
  1983 ;;                  1    wreg      void 
  1984 ;; Registers used:
  1985 ;;		None
  1986 ;; Tracked objects:
  1987 ;;		On entry : 0/0
  1988 ;;		On exit  : 0/0
  1989 ;;		Unchanged: 0/0
  1990 ;; Data sizes:     COMMON   BANK0   BANK1   BANK3   BANK2
  1991 ;;      Params:         0       0       0       0       0
  1992 ;;      Locals:         0       0       0       0       0
  1993 ;;      Temps:          0       0       0       0       0
  1994 ;;      Totals:         0       0       0       0       0
  1995 ;;Total ram usage:        0 bytes
  1996 ;; Hardware stack levels used:    1
  1997 ;; This function calls:
  1998 ;;		Nothing
  1999 ;; This function is called by:
  2000 ;;		_TimeUpdate
  2001 ;; This function uses a non-reentrant model
  2002 ;;
  2003                           psect	text7,local,class=CODE,delta=2,merge=1,group=0
  2004                           	line	190
  2005                           global __ptext7
  2006                           __ptext7:	;psect for function _StartTx
  2007  026F                     psect	text7
  2008                           	file	"user.c"
  2009                           	line	190
  2010                           	global	__size_of_StartTx
  2011                           	__size_of_StartTx	equ	__end_of_StartTx-_StartTx
  2012  0007                     	
  2013                           _StartTx:	
  2014  026F                     ;incstack = 0
  2015                           	opt	stack 3
  2016                           ; Regs used in _StartTx: []
  2017                           	line	195
  2018                           	
  2019                           i1l881:	
  2020  026F                     ;user.c: 195:     SerialModeTx = 1;
  2021                           	clrf	(_SerialModeTx)
  2022  026F  01FB               	incf	(_SerialModeTx),f
  2023  0270  0AFB               	line	196
  2024                           ;user.c: 196:     TxMode = 1;
  2025                           	bcf	status, 5	;RP0=0, select bank0
  2026  0271  1283               	bcf	status, 6	;RP1=0, select bank0
  2027  0272  1303               	clrf	(_TxMode)
  2028  0273  01B0               	incf	(_TxMode),f
  2029  0274  0AB0               	line	200
  2030                           	
  2031                           i1l122:	
  2032  0275                     	return
  2033  0275  0008               	opt stack 0
  2034                           GLOBAL	__end_of_StartTx
  2035                           	__end_of_StartTx:
  2036  0276                     	signat	_StartTx,89
  2037                           	global	_BitUpdate
  2038                           
  2039 ;; *************** function _BitUpdate *****************
  2040 ;; Defined at:
  2041 ;;		line 58 in file "user.c"
  2042 ;; Parameters:    Size  Location     Type
  2043 ;;		None
  2044 ;; Auto vars:     Size  Location     Type
  2045 ;;		None
  2046 ;; Return value:  Size  Location     Type
  2047 ;;                  1    wreg      void 
  2048 ;; Registers used:
  2049 ;;		wreg, fsr0l, fsr0h, status,2, status,0, pclath, cstack
  2050 ;; Tracked objects:
  2051 ;;		On entry : 0/0
  2052 ;;		On exit  : 0/0
  2053 ;;		Unchanged: 0/0
  2054 ;; Data sizes:     COMMON   BANK0   BANK1   BANK3   BANK2
  2055 ;;      Params:         0       0       0       0       0
  2056 ;;      Locals:         0       0       0       0       0
  2057 ;;      Temps:          2       0       0       0       0
  2058 ;;      Totals:         2       0       0       0       0
  2059 ;;Total ram usage:        2 bytes
  2060 ;; Hardware stack levels used:    1
  2061 ;; Hardware stack levels required when called:    1
  2062 ;; This function calls:
  2063 ;;		i1___bmul
  2064 ;; This function is called by:
  2065 ;;		_isr
  2066 ;; This function uses a non-reentrant model
  2067 ;;
  2068                           psect	text8,local,class=CODE,delta=2,merge=1,group=0
  2069                           	line	58
  2070                           global __ptext8
  2071                           __ptext8:	;psect for function _BitUpdate
  2072  0021                     psect	text8
  2073                           	file	"user.c"
  2074                           	line	58
  2075                           	global	__size_of_BitUpdate
  2076                           	__size_of_BitUpdate	equ	__end_of_BitUpdate-_BitUpdate
  2077  00F2                     	
  2078                           _BitUpdate:	
  2079  0021                     ;incstack = 0
  2080                           	opt	stack 3
  2081                           ; Regs used in _BitUpdate: [wreg-fsr0h+status,2+status,0+pclath+cstack]
  2082                           	line	64
  2083                           	
  2084                           i1l919:	
  2085  0021                     ;user.c: 60:     static uint8_t DataByte;;user.c: 61:     static uint8_t DataMask;;user.
                                 c: 62:     static uint8_t Unit;;user.c: 64:     if (TxMode == 0)
  2086                           	bcf	status, 5	;RP0=0, select bank0
  2087  0021  1283               	bcf	status, 6	;RP1=0, select bank0
  2088  0022  1303               	movf	((_TxMode)),w
  2089  0023  0830               	btfss	status,2
  2090  0024  1D03               	goto	u29_21
  2091  0025  2827               	goto	u29_20
  2092  0026  2828               u29_21:
  2093  0027                     	goto	i1l925
  2094  0027  282B               u29_20:
  2095  0028                     	goto	i1l89
  2096  0028  2912               	line	67
  2097                           	
  2098                           i1l921:	
  2099  0029                     ;user.c: 65:     {;user.c: 67:         return;
  2100                           	goto	i1l89
  2101  0029  2912               	line	68
  2102                           	
  2103                           i1l923:	
  2104  002A                     ;user.c: 68:     }
  2105                           	goto	i1l89
  2106  002A  2912               	line	69
  2107                           ;user.c: 69:     else if (TxMode == 1)
  2108                           	
  2109                           i1l88:	
  2110  002B                     	
  2111                           i1l925:	
  2112  002B                     		decf	((_TxMode)),w
  2113  002B  0330               	btfss	status,2
  2114  002C  1D03               	goto	u30_21
  2115  002D  282F               	goto	u30_20
  2116  002E  2830               u30_21:
  2117  002F                     	goto	i1l933
  2118  002F  283A               u30_20:
  2119  0030                     	line	71
  2120                           	
  2121                           i1l927:	
  2122  0030                     ;user.c: 70:     {;user.c: 71:         RA0 = 0;
  2123                           	bcf	(40/8),(40)&7	;volatile
  2124  0030  1005               	line	72
  2125                           ;user.c: 72:         RC1 = 1;
  2126                           	bsf	(57/8),(57)&7	;volatile
  2127  0031  1487               	line	74
  2128                           	
  2129                           i1l929:	
  2130  0032                     ;user.c: 74:         DataMode = 0;
  2131                           	clrf	(_DataMode)
  2132  0032  01AF               	line	75
  2133                           ;user.c: 75:         DataMask = 0;
  2134                           	clrf	(BitUpdate@DataMask)
  2135  0033  01AD               	line	76
  2136                           ;user.c: 76:         Unit = 0;
  2137                           	clrf	(BitUpdate@Unit)
  2138  0034  01AC               	line	78
  2139                           	
  2140                           i1l931:	
  2141  0035                     ;user.c: 78:         TxMode = 2;
  2142                           	movlw	low(02h)
  2143  0035  3002               	movwf	(??_BitUpdate+0)+0
  2144  0036  00F4               	movf	(??_BitUpdate+0)+0,w
  2145  0037  0874               	movwf	(_TxMode)
  2146  0038  00B0               	line	79
  2147                           ;user.c: 79:     }
  2148                           	goto	i1l89
  2149  0039  2912               	line	80
  2150                           ;user.c: 80:     else if (TxMode == 2)
  2151                           	
  2152                           i1l91:	
  2153  003A                     	
  2154                           i1l933:	
  2155  003A                     		movlw	2
  2156  003A  3002               	xorwf	((_TxMode)),w
  2157  003B  0630               	btfss	status,2
  2158  003C  1D03               	goto	u31_21
  2159  003D  283F               	goto	u31_20
  2160  003E  2840               u31_21:
  2161  003F                     	goto	i1l983
  2162  003F  28E1               u31_20:
  2163  0040                     	line	83
  2164                           	
  2165                           i1l935:	
  2166  0040                     ;user.c: 81:     {;user.c: 83:         if (DataMask == 0)
  2167                           	movf	((BitUpdate@DataMask)),w
  2168  0040  082D               	btfss	status,2
  2169  0041  1D03               	goto	u32_21
  2170  0042  2844               	goto	u32_20
  2171  0043  2845               u32_21:
  2172  0044                     	goto	i1l975
  2173  0044  28CF               u32_20:
  2174  0045                     	line	85
  2175                           	
  2176                           i1l937:	
  2177  0045                     ;user.c: 84:         {;user.c: 85:             if (DataMode == 0)
  2178                           	movf	((_DataMode)),w
  2179  0045  082F               	btfss	status,2
  2180  0046  1D03               	goto	u33_21
  2181  0047  2849               	goto	u33_20
  2182  0048  284A               u33_21:
  2183  0049                     	goto	i1l943
  2184  0049  2855               u33_20:
  2185  004A                     	line	88
  2186                           	
  2187                           i1l939:	
  2188  004A                     ;user.c: 86:             {;user.c: 88:                 DataByte = 0x9;
  2189                           	movlw	low(09h)
  2190  004A  3009               	movwf	(??_BitUpdate+0)+0
  2191  004B  00F4               	movf	(??_BitUpdate+0)+0,w
  2192  004C  0874               	movwf	(BitUpdate@DataByte)
  2193  004D  00AE               	line	89
  2194                           ;user.c: 89:                 DataMask = 0x08;
  2195                           	movlw	low(08h)
  2196  004E  3008               	movwf	(??_BitUpdate+0)+0
  2197  004F  00F4               	movf	(??_BitUpdate+0)+0,w
  2198  0050  0874               	movwf	(BitUpdate@DataMask)
  2199  0051  00AD               	line	92
  2200                           	
  2201                           i1l941:	
  2202  0052                     ;user.c: 92:                 DataMode = 1;
  2203                           	clrf	(_DataMode)
  2204  0052  01AF               	incf	(_DataMode),f
  2205  0053  0AAF               	line	93
  2206                           ;user.c: 93:             }
  2207                           	goto	i1l975
  2208  0054  28CF               	line	94
  2209                           ;user.c: 94:             else if (DataMode == 1)
  2210                           	
  2211                           i1l95:	
  2212  0055                     	
  2213                           i1l943:	
  2214  0055                     		decf	((_DataMode)),w
  2215  0055  032F               	btfss	status,2
  2216  0056  1D03               	goto	u34_21
  2217  0057  2859               	goto	u34_20
  2218  0058  285A               u34_21:
  2219  0059                     	goto	i1l951
  2220  0059  2876               u34_20:
  2221  005A                     	line	97
  2222                           	
  2223                           i1l945:	
  2224  005A                     ;user.c: 95:             {;user.c: 97:                 DataByte = Units[Unit].Address;
  2225                           	movlw	low(03h)
  2226  005A  3003               	movwf	(??_BitUpdate+0)+0
  2227  005B  00F4               	movf	(??_BitUpdate+0)+0,w
  2228  005C  0874               	movwf	(i1___bmul@multiplicand)
  2229  005D  00F0               	movf	(BitUpdate@Unit),w
  2230  005E  082C               	fcall	i1___bmul
  2231  005F  120A  118A  221E  120A  118A  	addlw	low(_Units|((0x0)<<8))&0ffh
  2232  0064  3E20               	movwf	fsr0
  2233  0065  0084               	bcf	status, 7	;select IRP bank0
  2234  0066  1383               	movf	indf,w
  2235  0067  0800               	movwf	(??_BitUpdate+1)+0
  2236  0068  00F5               	movf	(??_BitUpdate+1)+0,w
  2237  0069  0875               	bcf	status, 5	;RP0=0, select bank0
  2238  006A  1283               	bcf	status, 6	;RP1=0, select bank0
  2239  006B  1303               	movwf	(BitUpdate@DataByte)
  2240  006C  00AE               	line	98
  2241                           	
  2242                           i1l947:	
  2243  006D                     ;user.c: 98:                 DataMask = 0x10;
  2244                           	movlw	low(010h)
  2245  006D  3010               	movwf	(??_BitUpdate+0)+0
  2246  006E  00F4               	movf	(??_BitUpdate+0)+0,w
  2247  006F  0874               	movwf	(BitUpdate@DataMask)
  2248  0070  00AD               	line	101
  2249                           	
  2250                           i1l949:	
  2251  0071                     ;user.c: 101:                 DataMode = 2;
  2252                           	movlw	low(02h)
  2253  0071  3002               	movwf	(??_BitUpdate+0)+0
  2254  0072  00F4               	movf	(??_BitUpdate+0)+0,w
  2255  0073  0874               	movwf	(_DataMode)
  2256  0074  00AF               	line	103
  2257                           ;user.c: 103:             }
  2258                           	goto	i1l975
  2259  0075  28CF               	line	104
  2260                           ;user.c: 104:             else if (DataMode == 2)
  2261                           	
  2262                           i1l97:	
  2263  0076                     	
  2264                           i1l951:	
  2265  0076                     		movlw	2
  2266  0076  3002               	xorwf	((_DataMode)),w
  2267  0077  062F               	btfss	status,2
  2268  0078  1D03               	goto	u35_21
  2269  0079  287B               	goto	u35_20
  2270  007A  287C               u35_21:
  2271  007B                     	goto	i1l959
  2272  007B  2899               u35_20:
  2273  007C                     	line	107
  2274                           	
  2275                           i1l953:	
  2276  007C                     ;user.c: 105:             {;user.c: 107:                 DataByte = Units[Unit].Lamps;
  2277                           	movlw	low(03h)
  2278  007C  3003               	movwf	(??_BitUpdate+0)+0
  2279  007D  00F4               	movf	(??_BitUpdate+0)+0,w
  2280  007E  0874               	movwf	(i1___bmul@multiplicand)
  2281  007F  00F0               	movf	(BitUpdate@Unit),w
  2282  0080  082C               	fcall	i1___bmul
  2283  0081  120A  118A  221E  120A  118A  	addlw	01h
  2284  0086  3E01               	addlw	low(_Units|((0x0)<<8))&0ffh
  2285  0087  3E20               	movwf	fsr0
  2286  0088  0084               	bcf	status, 7	;select IRP bank0
  2287  0089  1383               	movf	indf,w
  2288  008A  0800               	movwf	(??_BitUpdate+1)+0
  2289  008B  00F5               	movf	(??_BitUpdate+1)+0,w
  2290  008C  0875               	bcf	status, 5	;RP0=0, select bank0
  2291  008D  1283               	bcf	status, 6	;RP1=0, select bank0
  2292  008E  1303               	movwf	(BitUpdate@DataByte)
  2293  008F  00AE               	line	108
  2294                           	
  2295                           i1l955:	
  2296  0090                     ;user.c: 108:                 DataMask = 0x10;
  2297                           	movlw	low(010h)
  2298  0090  3010               	movwf	(??_BitUpdate+0)+0
  2299  0091  00F4               	movf	(??_BitUpdate+0)+0,w
  2300  0092  0874               	movwf	(BitUpdate@DataMask)
  2301  0093  00AD               	line	111
  2302                           	
  2303                           i1l957:	
  2304  0094                     ;user.c: 111:                 DataMode = 3;
  2305                           	movlw	low(03h)
  2306  0094  3003               	movwf	(??_BitUpdate+0)+0
  2307  0095  00F4               	movf	(??_BitUpdate+0)+0,w
  2308  0096  0874               	movwf	(_DataMode)
  2309  0097  00AF               	line	112
  2310                           ;user.c: 112:             }
  2311                           	goto	i1l975
  2312  0098  28CF               	line	113
  2313                           ;user.c: 113:             else if (DataMode == 3)
  2314                           	
  2315                           i1l99:	
  2316  0099                     	
  2317                           i1l959:	
  2318  0099                     		movlw	3
  2319  0099  3003               	xorwf	((_DataMode)),w
  2320  009A  062F               	btfss	status,2
  2321  009B  1D03               	goto	u36_21
  2322  009C  289E               	goto	u36_20
  2323  009D  289F               u36_21:
  2324  009E                     	goto	i1l975
  2325  009E  28CF               u36_20:
  2326  009F                     	line	116
  2327                           	
  2328                           i1l961:	
  2329  009F                     ;user.c: 114:             {;user.c: 116:                 DataByte = Units[Unit].LampData
                                 ;
  2330                           	movlw	low(03h)
  2331  009F  3003               	movwf	(??_BitUpdate+0)+0
  2332  00A0  00F4               	movf	(??_BitUpdate+0)+0,w
  2333  00A1  0874               	movwf	(i1___bmul@multiplicand)
  2334  00A2  00F0               	movf	(BitUpdate@Unit),w
  2335  00A3  082C               	fcall	i1___bmul
  2336  00A4  120A  118A  221E  120A  118A  	addlw	02h
  2337  00A9  3E02               	addlw	low(_Units|((0x0)<<8))&0ffh
  2338  00AA  3E20               	movwf	fsr0
  2339  00AB  0084               	bcf	status, 7	;select IRP bank0
  2340  00AC  1383               	movf	indf,w
  2341  00AD  0800               	movwf	(??_BitUpdate+1)+0
  2342  00AE  00F5               	movf	(??_BitUpdate+1)+0,w
  2343  00AF  0875               	bcf	status, 5	;RP0=0, select bank0
  2344  00B0  1283               	bcf	status, 6	;RP1=0, select bank0
  2345  00B1  1303               	movwf	(BitUpdate@DataByte)
  2346  00B2  00AE               	line	117
  2347                           	
  2348                           i1l963:	
  2349  00B3                     ;user.c: 117:                 DataMask = 0x80;
  2350                           	movlw	low(080h)
  2351  00B3  3080               	movwf	(??_BitUpdate+0)+0
  2352  00B4  00F4               	movf	(??_BitUpdate+0)+0,w
  2353  00B5  0874               	movwf	(BitUpdate@DataMask)
  2354  00B6  00AD               	line	120
  2355                           	
  2356                           i1l965:	
  2357  00B7                     ;user.c: 120:                 Unit++;
  2358                           	movlw	low(01h)
  2359  00B7  3001               	movwf	(??_BitUpdate+0)+0
  2360  00B8  00F4               	movf	(??_BitUpdate+0)+0,w
  2361  00B9  0874               	addwf	(BitUpdate@Unit),f
  2362  00BA  07AC               	line	122
  2363                           	
  2364                           i1l967:	
  2365  00BB                     ;user.c: 122:                 if (Unit < (sizeof(Units)/sizeof(UNIT_T)) )
  2366                           	movlw	low(04h)
  2367  00BB  3004               	subwf	(BitUpdate@Unit),w
  2368  00BC  022C               	skipnc
  2369  00BD  1803               	goto	u37_21
  2370  00BE  28C0               	goto	u37_20
  2371  00BF  28C1               u37_21:
  2372  00C0                     	goto	i1l971
  2373  00C0  28C4               u37_20:
  2374  00C1                     	line	125
  2375                           	
  2376                           i1l969:	
  2377  00C1                     ;user.c: 123:                 {;user.c: 125:                     DataMode = 1;
  2378                           	clrf	(_DataMode)
  2379  00C1  01AF               	incf	(_DataMode),f
  2380  00C2  0AAF               	line	126
  2381                           ;user.c: 126:                 }
  2382                           	goto	i1l975
  2383  00C3  28CF               	line	127
  2384                           ;user.c: 127:                 else
  2385                           	
  2386                           i1l102:	
  2387  00C4                     	line	130
  2388                           	
  2389                           i1l971:	
  2390  00C4                     ;user.c: 128:                 {;user.c: 130:                     Unit = 0;
  2391                           	clrf	(BitUpdate@Unit)
  2392  00C4  01AC               	line	131
  2393                           	
  2394                           i1l973:	
  2395  00C5                     ;user.c: 131:                     DataMode = 4;
  2396                           	movlw	low(04h)
  2397  00C5  3004               	movwf	(??_BitUpdate+0)+0
  2398  00C6  00F4               	movf	(??_BitUpdate+0)+0,w
  2399  00C7  0874               	movwf	(_DataMode)
  2400  00C8  00AF               	goto	i1l975
  2401  00C9  28CF               	line	132
  2402                           ;user.c: 132:                 }
  2403                           	
  2404                           i1l103:	
  2405  00CA                     	goto	i1l975
  2406  00CA  28CF               	line	133
  2407                           ;user.c: 133:             }
  2408                           	
  2409                           i1l101:	
  2410  00CB                     	goto	i1l975
  2411  00CB  28CF               	
  2412                           i1l100:	
  2413  00CC                     	goto	i1l975
  2414  00CC  28CF               	
  2415                           i1l98:	
  2416  00CD                     	goto	i1l975
  2417  00CD  28CF               	
  2418                           i1l96:	
  2419  00CE                     	goto	i1l975
  2420  00CE  28CF               	line	139
  2421                           ;user.c: 139:         }
  2422                           	
  2423                           i1l94:	
  2424  00CF                     	line	141
  2425                           	
  2426                           i1l975:	
  2427  00CF                     ;user.c: 141:         if (DataMask != 0)
  2428                           	movf	((BitUpdate@DataMask)),w
  2429  00CF  082D               	btfsc	status,2
  2430  00D0  1903               	goto	u38_21
  2431  00D1  28D3               	goto	u38_20
  2432  00D2  28D4               u38_21:
  2433  00D3                     	goto	i1l104
  2434  00D3  28DA               u38_20:
  2435  00D4                     	line	143
  2436                           	
  2437                           i1l977:	
  2438  00D4                     ;user.c: 142:         {;user.c: 143:             RA0 = 1;
  2439                           	bsf	(40/8),(40)&7	;volatile
  2440  00D4  1405               	line	144
  2441                           	
  2442                           i1l979:	
  2443  00D5                     ;user.c: 144:             TxMode = 3;
  2444                           	movlw	low(03h)
  2445  00D5  3003               	movwf	(??_BitUpdate+0)+0
  2446  00D6  00F4               	movf	(??_BitUpdate+0)+0,w
  2447  00D7  0874               	movwf	(_TxMode)
  2448  00D8  00B0               	line	145
  2449                           ;user.c: 145:         }
  2450                           	goto	i1l89
  2451  00D9  2912               	line	146
  2452                           ;user.c: 146:         else
  2453                           	
  2454                           i1l104:	
  2455  00DA                     	line	148
  2456                           ;user.c: 147:         {;user.c: 148:             RA0 = 0;
  2457                           	bcf	(40/8),(40)&7	;volatile
  2458  00DA  1005               	line	149
  2459                           	
  2460                           i1l981:	
  2461  00DB                     ;user.c: 149:             TxMode = 5;
  2462                           	movlw	low(05h)
  2463  00DB  3005               	movwf	(??_BitUpdate+0)+0
  2464  00DC  00F4               	movf	(??_BitUpdate+0)+0,w
  2465  00DD  0874               	movwf	(_TxMode)
  2466  00DE  00B0               	goto	i1l89
  2467  00DF  2912               	line	150
  2468                           ;user.c: 150:         }
  2469                           	
  2470                           i1l105:	
  2471  00E0                     	line	152
  2472                           ;user.c: 152:     }
  2473                           	goto	i1l89
  2474  00E0  2912               	line	153
  2475                           ;user.c: 153:     else if (TxMode == 3)
  2476                           	
  2477                           i1l93:	
  2478  00E1                     	
  2479                           i1l983:	
  2480  00E1                     		movlw	3
  2481  00E1  3003               	xorwf	((_TxMode)),w
  2482  00E2  0630               	btfss	status,2
  2483  00E3  1D03               	goto	u39_21
  2484  00E4  28E6               	goto	u39_20
  2485  00E5  28E7               u39_21:
  2486  00E6                     	goto	i1l991
  2487  00E6  28F8               u39_20:
  2488  00E7                     	line	156
  2489                           	
  2490                           i1l985:	
  2491  00E7                     ;user.c: 154:     {;user.c: 156:         if (DataByte & DataMask)
  2492                           	movf	(BitUpdate@DataByte),w
  2493  00E7  082E               	andwf	(BitUpdate@DataMask),w
  2494  00E8  052D               	btfsc	status,2
  2495  00E9  1903               	goto	u40_21
  2496  00EA  28EC               	goto	u40_20
  2497  00EB  28ED               u40_21:
  2498  00EC                     	goto	i1l108
  2499  00EC  28EF               u40_20:
  2500  00ED                     	line	157
  2501                           	
  2502                           i1l987:	
  2503  00ED                     ;user.c: 157:             RA0 = 1;
  2504                           	bsf	(40/8),(40)&7	;volatile
  2505  00ED  1405               	goto	i1l989
  2506  00EE  28F1               	line	158
  2507                           ;user.c: 158:         else
  2508                           	
  2509                           i1l108:	
  2510  00EF                     	line	159
  2511                           ;user.c: 159:             RA0 = 0;
  2512                           	bcf	(40/8),(40)&7	;volatile
  2513  00EF  1005               	goto	i1l989
  2514  00F0  28F1               	
  2515                           i1l109:	
  2516  00F1                     	line	162
  2517                           	
  2518                           i1l989:	
  2519  00F1                     ;user.c: 162:         DataMask >>= 1;
  2520                           	clrc
  2521  00F1  1003               	rrf	(BitUpdate@DataMask),f
  2522  00F2  0CAD               
  2523                           	line	164
  2524                           ;user.c: 164:         TxMode = 4;
  2525                           	movlw	low(04h)
  2526  00F3  3004               	movwf	(??_BitUpdate+0)+0
  2527  00F4  00F4               	movf	(??_BitUpdate+0)+0,w
  2528  00F5  0874               	movwf	(_TxMode)
  2529  00F6  00B0               	line	165
  2530                           ;user.c: 165:     }
  2531                           	goto	i1l89
  2532  00F7  2912               	line	166
  2533                           ;user.c: 166:     else if (TxMode == 4)
  2534                           	
  2535                           i1l107:	
  2536  00F8                     	
  2537                           i1l991:	
  2538  00F8                     		movlw	4
  2539  00F8  3004               	xorwf	((_TxMode)),w
  2540  00F9  0630               	btfss	status,2
  2541  00FA  1D03               	goto	u41_21
  2542  00FB  28FD               	goto	u41_20
  2543  00FC  28FE               u41_21:
  2544  00FD                     	goto	i1l997
  2545  00FD  2904               u41_20:
  2546  00FE                     	line	168
  2547                           	
  2548                           i1l993:	
  2549  00FE                     ;user.c: 167:     {;user.c: 168:         RA0 = 0;
  2550                           	bcf	(40/8),(40)&7	;volatile
  2551  00FE  1005               	line	169
  2552                           	
  2553                           i1l995:	
  2554  00FF                     ;user.c: 169:         TxMode = 2;
  2555                           	movlw	low(02h)
  2556  00FF  3002               	movwf	(??_BitUpdate+0)+0
  2557  0100  00F4               	movf	(??_BitUpdate+0)+0,w
  2558  0101  0874               	movwf	(_TxMode)
  2559  0102  00B0               	line	170
  2560                           ;user.c: 170:     }
  2561                           	goto	i1l89
  2562  0103  2912               	line	171
  2563                           ;user.c: 171:     else if (TxMode == 5)
  2564                           	
  2565                           i1l111:	
  2566  0104                     	
  2567                           i1l997:	
  2568  0104                     		movlw	5
  2569  0104  3005               	xorwf	((_TxMode)),w
  2570  0105  0630               	btfss	status,2
  2571  0106  1D03               	goto	u42_21
  2572  0107  2909               	goto	u42_20
  2573  0108  290A               u42_21:
  2574  0109                     	goto	i1l89
  2575  0109  2912               u42_20:
  2576  010A                     	line	173
  2577                           	
  2578                           i1l999:	
  2579  010A                     ;user.c: 172:     {;user.c: 173:         RC1 = 0;
  2580                           	bcf	(57/8),(57)&7	;volatile
  2581  010A  1087               	line	174
  2582                           	
  2583                           i1l1001:	
  2584  010B                     ;user.c: 174:         TxMode = 0;
  2585                           	clrf	(_TxMode)
  2586  010B  01B0               	goto	i1l89
  2587  010C  2912               	line	175
  2588                           ;user.c: 175:     }
  2589                           	
  2590                           i1l113:	
  2591  010D                     	goto	i1l89
  2592  010D  2912               	
  2593                           i1l112:	
  2594  010E                     	goto	i1l89
  2595  010E  2912               	
  2596                           i1l110:	
  2597  010F                     	goto	i1l89
  2598  010F  2912               	
  2599                           i1l106:	
  2600  0110                     	goto	i1l89
  2601  0110  2912               	
  2602                           i1l92:	
  2603  0111                     	goto	i1l89
  2604  0111  2912               	
  2605                           i1l90:	
  2606  0112                     	line	176
  2607                           	
  2608                           i1l89:	
  2609  0112                     	return
  2610  0112  0008               	opt stack 0
  2611                           GLOBAL	__end_of_BitUpdate
  2612                           	__end_of_BitUpdate:
  2613  0113                     	signat	_BitUpdate,89
  2614                           	global	i1___bmul
  2615                           
  2616 ;; *************** function i1___bmul *****************
  2617 ;; Defined at:
  2618 ;;		line 4 in file "C:\Program Files (x86)\Microchip\xc8\v2.00\pic\sources\c90\common\Umul8.c"
  2619 ;; Parameters:    Size  Location     Type
  2620 ;;  multiplier      1    wreg     unsigned char 
  2621 ;;  multiplicand    1    0[COMMON] unsigned char 
  2622 ;; Auto vars:     Size  Location     Type
  2623 ;;  multiplier      1    2[COMMON] unsigned char 
  2624 ;;  __bmul          1    3[COMMON] unsigned char 
  2625 ;; Return value:  Size  Location     Type
  2626 ;;                  1    wreg      unsigned char 
  2627 ;; Registers used:
  2628 ;;		wreg, status,2, status,0
  2629 ;; Tracked objects:
  2630 ;;		On entry : 0/0
  2631 ;;		On exit  : 0/0
  2632 ;;		Unchanged: 0/0
  2633 ;; Data sizes:     COMMON   BANK0   BANK1   BANK3   BANK2
  2634 ;;      Params:         1       0       0       0       0
  2635 ;;      Locals:         2       0       0       0       0
  2636 ;;      Temps:          1       0       0       0       0
  2637 ;;      Totals:         4       0       0       0       0
  2638 ;;Total ram usage:        4 bytes
  2639 ;; Hardware stack levels used:    1
  2640 ;; This function calls:
  2641 ;;		Nothing
  2642 ;; This function is called by:
  2643 ;;		_BitUpdate
  2644 ;; This function uses a non-reentrant model
  2645 ;;
  2646                           psect	text9,local,class=CODE,delta=2,merge=1,group=0
  2647                           	file	"C:\Program Files (x86)\Microchip\xc8\v2.00\pic\sources\c90\common\Umul8.c"
  2648                           	line	4
  2649                           global __ptext9
  2650                           __ptext9:	;psect for function i1___bmul
  2651  021E                     psect	text9
  2652                           	file	"C:\Program Files (x86)\Microchip\xc8\v2.00\pic\sources\c90\common\Umul8.c"
  2653                           	line	4
  2654                           	global	__size_ofi1___bmul
  2655                           	__size_ofi1___bmul	equ	__end_ofi1___bmul-i1___bmul
  2656  0019                     	
  2657                           i1___bmul:	
  2658  021E                     ;incstack = 0
  2659                           	opt	stack 3
  2660                           ; Regs used in i1___bmul: [wreg+status,2+status,0]
  2661                           ;i1___bmul@multiplier stored from wreg
  2662                           	movwf	(i1___bmul@multiplier)
  2663  021E  00F2               	line	6
  2664                           	
  2665                           i1l897:	
  2666  021F                     	clrf	(i1___bmul@product)
  2667  021F  01F3               	goto	i1l899
  2668  0220  2A21               	line	42
  2669                           	
  2670                           i1l231:	
  2671  0221                     	line	43
  2672                           	
  2673                           i1l899:	
  2674  0221                     	btfss	(i1___bmul@multiplier),(0)&7
  2675  0221  1C72               	goto	u25_21
  2676  0222  2A24               	goto	u25_20
  2677  0223  2A25               u25_21:
  2678  0224                     	goto	i1l903
  2679  0224  2A2A               u25_20:
  2680  0225                     	line	44
  2681                           	
  2682                           i1l901:	
  2683  0225                     	movf	(i1___bmul@multiplicand),w
  2684  0225  0870               	movwf	(??i1___bmul+0)+0
  2685  0226  00F1               	movf	(??i1___bmul+0)+0,w
  2686  0227  0871               	addwf	(i1___bmul@product),f
  2687  0228  07F3               	goto	i1l903
  2688  0229  2A2A               	
  2689                           i1l232:	
  2690  022A                     	line	45
  2691                           	
  2692                           i1l903:	
  2693  022A                     	clrc
  2694  022A  1003               	rlf	(i1___bmul@multiplicand),f
  2695  022B  0DF0               
  2696                           	line	46
  2697                           	
  2698                           i1l905:	
  2699  022C                     	clrc
  2700  022C  1003               	rrf	(i1___bmul@multiplier),f
  2701  022D  0CF2               
  2702                           	line	47
  2703                           	movf	((i1___bmul@multiplier)),w
  2704  022E  0872               	btfss	status,2
  2705  022F  1D03               	goto	u26_21
  2706  0230  2A32               	goto	u26_20
  2707  0231  2A33               u26_21:
  2708  0232                     	goto	i1l899
  2709  0232  2A21               u26_20:
  2710  0233                     	goto	i1l907
  2711  0233  2A34               	
  2712                           i1l233:	
  2713  0234                     	line	50
  2714                           	
  2715                           i1l907:	
  2716  0234                     	movf	(i1___bmul@product),w
  2717  0234  0873               	goto	i1l234
  2718  0235  2A36               	
  2719                           i1l909:	
  2720  0236                     	line	51
  2721                           	
  2722                           i1l234:	
  2723  0236                     	return
  2724  0236  0008               	opt stack 0
  2725                           GLOBAL	__end_ofi1___bmul
  2726                           	__end_ofi1___bmul:
  2727  0237                     	signat	i1___bmul,89
  2728                           global	___latbits
  2729                           ___latbits	equ	2
  2730  0002                     	global	btemp
  2731                           	btemp set 07Eh
  2732  007E                     
  2733                           	DABS	1,126,2	;btemp
  2734                           	global	wtemp0
  2735                           	wtemp0 set btemp+0
  2736  007E                     	end


Data Sizes:
    Strings     0
    Constant    0
    Data        0
    BSS         20
    Persistent  0
    Stack       0

Auto Spaces:
    Space          Size  Autos    Used
    COMMON           14      9      12
    BANK0            80     11      28
    BANK1            80      0       0
    BANK3            96      0       0
    BANK2            96      0       0

Pointer List with Targets:

    None.

Critical Paths under _main in COMMON

    None.

Critical Paths under _isr in COMMON

    _isr->_BitUpdate
    _BitUpdate->i1___bmul

Critical Paths under _main in BANK0

    _main->_SetUnitConfig
    _SetUnitLamps->___bmul
    _SetUnitConfig->___bmul

Critical Paths under _isr in BANK0

    None.

Critical Paths under _main in BANK1

    None.

Critical Paths under _isr in BANK1

    None.

Critical Paths under _main in BANK3

    None.

Critical Paths under _isr in BANK3

    None.

Critical Paths under _main in BANK2

    None.

Critical Paths under _isr in BANK2

    None.

Call Graph Tables:

 ---------------------------------------------------------------------------------
 (Depth) Function   	        Calls       Base Space   Used Autos Params    Refs
 ---------------------------------------------------------------------------------
 (0) _main                                                 2     2      0    1426
                                              9 BANK0      2     2      0
                          _Configure
                      _SetUnitConfig
                       _SetUnitLamps
 ---------------------------------------------------------------------------------
 (1) _SetUnitLamps                                         4     3      1     539
                                              4 BANK0      4     3      1
                             ___bmul
 ---------------------------------------------------------------------------------
 (1) _SetUnitConfig                                        5     3      2     887
                                              4 BANK0      5     3      2
                             ___bmul
 ---------------------------------------------------------------------------------
 (2) ___bmul                                               4     3      1     191
                                              0 BANK0      4     3      1
 ---------------------------------------------------------------------------------
 (1) _Configure                                            0     0      0       0
 ---------------------------------------------------------------------------------
 Estimated maximum stack depth 2
 ---------------------------------------------------------------------------------
 (Depth) Function   	        Calls       Base Space   Used Autos Params    Refs
 ---------------------------------------------------------------------------------
 (3) _isr                                                  3     3      0     125
                                              6 COMMON     3     3      0
                          _BitUpdate
                         _TimeUpdate
 ---------------------------------------------------------------------------------
 (4) _TimeUpdate                                           1     1      0       0
                                              0 COMMON     1     1      0
                            _StartTx
 ---------------------------------------------------------------------------------
 (5) _StartTx                                              0     0      0       0
 ---------------------------------------------------------------------------------
 (4) _BitUpdate                                            2     2      0     125
                                              4 COMMON     2     2      0
                           i1___bmul
 ---------------------------------------------------------------------------------
 (5) i1___bmul                                             4     3      1     125
                                              0 COMMON     4     3      1
 ---------------------------------------------------------------------------------
 Estimated maximum stack depth 5
 ---------------------------------------------------------------------------------

 Call Graph Graphs:

 _main (ROOT)
   _Configure
   _SetUnitConfig
     ___bmul
   _SetUnitLamps
     ___bmul

 _isr (ROOT)
   _BitUpdate
     i1___bmul
   _TimeUpdate
     _StartTx

 Address spaces:
Name               Size   Autos  Total    Cost      Usage
BITCOMMON            E      0       0       0        0.0%
EEDATA             100      0       0       0        0.0%
NULL                 0      0       0       0        0.0%
CODE                 0      0       0       0        0.0%
COMMON               E      9       C       1       85.7%
BITSFR0              0      0       0       1        0.0%
SFR0                 0      0       0       1        0.0%
BITSFR1              0      0       0       2        0.0%
SFR1                 0      0       0       2        0.0%
STACK                0      0       0       2        0.0%
ABS                  0      0      28       3        0.0%
BITBANK0            50      0       0       4        0.0%
BITSFR3              0      0       0       4        0.0%
SFR3                 0      0       0       4        0.0%
BANK0               50      B      1C       5       35.0%
BITSFR2              0      0       0       5        0.0%
SFR2                 0      0       0       5        0.0%
BITBANK1            50      0       0       6        0.0%
BANK1               50      0       0       7        0.0%
BITBANK3            60      0       0       8        0.0%
BANK3               60      0       0       9        0.0%
BITBANK2            60      0       0      10        0.0%
BANK2               60      0       0      11        0.0%
DATA                 0      0      28      12        0.0%


Microchip Technology PIC Macro Assembler V2.00 build -1524193055 
Symbol Table                                                                                   Fri Nov 09 14:54:51 2018

        TimeUpdate@Count 0079           ___bmul@product 0033              __CFG_CP$OFF 0000  
      SetUnitConfig@Unit 0039                       l32 0184                       l33 0184  
                     l34 0185                       l35 0185                       l56 0202  
                     fsr 0004       SetUnitConfig@Lamps 0036    __end_of_SetUnitConfig 01B3  
                    l116 01B2                      l231 0208                      l119 024E  
                    l232 0211                      l233 021B                      l234 021D  
                    l891 0213                      l883 0206                      l893 021B  
                    l885 0208                      l895 021D                      l887 020C  
                    l889 0211                      _RA0 0028                      _RC1 0039  
                    u230 020C                      u231 020B                      u240 021A  
                    u241 0219                      _PR2 0092             __CFG_CPD$OFF 0000  
            __CFG_WRT$ON 0000                      _isr 01B3                      fsr0 0004  
                    indf 0000         SetUnitLamps@Unit 0038             __CFG_FOSC$HS 0000  
           __CFG_LVP$OFF 0000                     l1011 01E9                     l1003 01DE  
                   l1021 01F5                     l1013 01EB                     l1005 01E2  
                   l1023 01FC                     l1015 01ED                     l1007 01E4  
                   l1025 01FF                     l1017 01F1                     l1009 01E8  
                   l1019 01F4                     l1027 018B                     l1051 0125  
                   l1029 023A                     l1061 0167                     l1053 0131  
                   l1063 0177                     l1055 013F                     l1047 0113  
                   l1065 0183                     l1057 014B                     l1049 0118  
                   l1059 015B                     ?_isr 0070                     i1l17 01C2  
                   i1l18 01D5                     i1l19 01D5                     i1l90 0112  
                   i1l91 003A                     i1l92 0111                     i1l93 00E1  
                   i1l77 025B                     i1l94 00CF                     i1l78 0266  
                   i1l95 0055                     i1l79 0266                     i1l96 00CE  
                   i1l88 002B                     i1l97 0076                     i1l89 0112  
                   i1l98 00CD                     i1l99 0099                     _TMR0 0001  
                   _main 0113                     btemp 007E            __CFG_BOREN$ON 0000  
                   start 000E     SetUnitConfig@Address 0035        ___bmul@multiplier 0034  
                  ??_isr 0076          __end_of_StartTx 0276                    ?_main 0070  
          __CFG_WDTE$OFF 0000                    i1l100 00CC                    i1l101 00CB  
                  i1l110 010F                    i1l102 00C4                    i1l111 0104  
                  i1l103 00CA                    i1l112 010E                    i1l104 00DA  
                  i1l113 010D                    i1l105 00E0                    i1l106 0110  
                  i1l122 0275                    i1l107 00F8                    i1l108 00EF  
                  i1l109 00F1                    i1l231 0221                    i1l232 022A  
                  i1l233 0234                    i1l234 0236                    i1l901 0225  
                  i1l903 022A                    i1l911 024F                    i1l905 022C  
                  i1l921 0029                    i1l913 0259                    i1l907 0234  
                  i1l931 0035                    i1l923 002A                    i1l915 025B  
                  i1l909 0236                    i1l941 0052                    i1l933 003A  
                  i1l925 002B                    i1l917 0260                    i1l951 0076  
                  i1l943 0055                    i1l935 0040                    i1l927 0030  
                  i1l919 0021                    i1l961 009F                    i1l953 007C  
                  i1l945 005A                    i1l937 0045                    i1l929 0032  
                  i1l881 026F                    i1l971 00C4                    i1l963 00B3  
                  i1l955 0090                    i1l947 006D                    i1l939 004A  
                  i1l981 00DB                    i1l973 00C5                    i1l965 00B7  
                  i1l957 0094                    i1l949 0071                    i1l991 00F8  
                  i1l967 00BB                    i1l959 0099                    i1l975 00CF  
                  i1l983 00E1                    i1l897 021F                    i1l993 00FE  
                  i1l985 00E7                    i1l977 00D4                    i1l969 00C1  
                  i1l899 0221                    i1l995 00FF                    i1l987 00ED  
                  i1l979 00D5                    i1l997 0104                    i1l989 00F1  
                  i1l999 010A                    u30_20 0030                    u30_21 002F  
                  u31_20 0040                    u31_21 003F                    u40_20 00ED  
                  u32_20 0045                    u40_21 00EC                    u32_21 0044  
                  u25_20 0225                    u41_20 00FE                    u33_20 004A  
                  u25_21 0224                    u41_21 00FD                    u33_21 0049  
                  u26_20 0233                    u42_20 010A                    u34_20 005A  
                  u26_21 0232                    u42_21 0109                    u34_21 0059  
                  u35_20 007C                    u27_20 0259                    u43_20 01B7  
                  u35_21 007B                    u27_21 0258                    u43_21 01B6  
                  u36_20 009F                    u28_20 0260                    u44_20 01C8  
                  u36_21 009E                    u28_21 025F                    u44_21 01C7  
                  u37_20 00C1                    u29_20 0028                    u37_21 00C0  
                  u29_21 0027                    u38_20 00D4                    u38_21 00D3  
                  u39_20 00E7                    u39_21 00E6                    _TxBit 007A  
                  _Units 0020         __end_ofi1___bmul 0237                    pclath 000A  
                  status 0003                    wtemp0 007E          __initialization 0011  
           __end_of_main 0188       __size_of_BitUpdate 00F2                   ??_main 003A  
     __size_of_Configure 0025                   i1l1001 010B                   i1l1031 01B3  
                 i1l1041 01C8                   i1l1033 01B7                   i1l1043 01CC  
                 i1l1035 01BB                   i1l1045 01CF                   i1l1037 01BC  
                 i1l1039 01C2           __CFG_PWRTE$OFF 0000                   _TxMode 0030  
             _TimeUpdate 024F                   ___bmul 0203                ??_StartTx 0070  
          BitUpdate@Unit 002C                   saved_w 007E        __end_of_BitUpdate 0113  
__end_of__initialization 001D      ___bmul@multiplicand 0031           __pcstackCOMMON 0070  
      __end_of_Configure 0203            ?_SetUnitLamps 0035        BitUpdate@DataMask 002D  
      BitUpdate@DataByte 002E                ?i1___bmul 0070           _OPTION_REGbits 0081  
       i1___bmul@product 0073               __pbssBANK0 0020               __pmaintext 0113  
            ?_TimeUpdate 0070                  ?___bmul 0031           ??_SetUnitLamps 0036  
             __pintentry 0004               ??i1___bmul 0071   __size_of_SetUnitConfig 002B  
                _StartTx 026F          __size_of___bmul 001B                  __ptext1 0237  
                __ptext2 0188                  __ptext3 0203                  __ptext4 01DE  
                __ptext5 01B3                  __ptext6 024F                  __ptext7 026F  
                __ptext8 0021                  __ptext9 021E                _T2CONbits 0012  
           __size_of_isr 002B      i1___bmul@multiplier 0072      __size_of_TimeUpdate 0018  
                clrloop0 0268     end_of_initialization 001D     SetUnitLamps@LampData 0035  
              _PORTAbits 0005            _SetUnitConfig 0188                _TRISAbits 0085  
   __end_of_SetUnitLamps 024F                _BitUpdate 0021           __end_of___bmul 021E  
              _Configure 01DE           ?_SetUnitConfig 0035        __size_ofi1___bmul 0019  
    start_initialization 0011              __end_of_isr 01DE               ?_BitUpdate 0070  
           ??_TimeUpdate 0070                 ??___bmul 0032               ?_Configure 0070  
            __pbssCOMMON 0079                ___latbits 0002            __pcstackBANK0 0031  
     __end_of_TimeUpdate 0267                 ?_StartTx 0070          ??_SetUnitConfig 0037  
  __size_of_SetUnitLamps 0018        interrupt_function 0004                clear_ram0 0267  
               _PIE1bits 008C    i1___bmul@multiplicand 0070              ??_BitUpdate 0074  
               _PIR1bits 000C             _SetUnitLamps 0237              ??_Configure 0031  
               i1___bmul 021E               _ADCON1bits 009F                 _DataMode 002F  
           _SerialModeTx 007B         __size_of_StartTx 0007            __size_of_main 0075  
             _INTCONbits 000B                 intlevel1 0000  
