

Microchip Technology PIC LITE Macro Assembler V2.00 build -1524193055 
                                                                                               Wed Oct 17 15:48:05 2018

Microchip Technology Omniscient Code Generator v2.00 (Free mode) build 20180527130849
     1  0000                     
      + 0000                     
     2                           ; Version 2.00
     3                           ; Generated 27/05/2018 GMT
     4                           
     5                           ; 
     6                           ; Copyright © 2018, Microchip Technology Inc. and its subsidiaries ("Microchip")
     7                           ; All rights reserved.
     8                           ; 
     9                           ; This software is developed by Microchip Technology Inc. and its subsidiaries ("Microch
                                 ip").
    10                           ; 
    11                           ; Redistribution and use in source and binary forms, with or without modification, are
    12                           ; permitted provided that the following conditions are met:
    13                           ; 
    14                           ;     1. Redistributions of source code must retain the above copyright notice, this lis
                                 t of
    15                           ;        conditions and the following disclaimer.
    16                           ; 
    17                           ;     2. Redistributions in binary form must reproduce the above copyright notice, this 
                                 list
    18                           ;        of conditions and the following disclaimer in the documentation and/or other
    19                           ;        materials provided with the distribution.
    20                           ; 
    21                           ;     3. Microchip's name may not be used to endorse or promote products derived from th
                                 is
    22                           ;        software without specific prior written permission.
    23                           ; 
    24                           ; THIS SOFTWARE IS PROVIDED BY MICROCHIP "AS IS" AND ANY EXPRESS OR IMPLIED WARRANTIES,

    25                           ; INCLUDING, BUT NOT LIMITED TO, THE IMPLIED WARRANTIES OF MERCHANTABILITY AND FITNESS F
                                 OR
    26                           ; PURPOSE ARE DISCLAIMED.  IN NO EVENT SHALL MICROCHIP BE LIABLE FOR ANY DIRECT, INDIREC
                                 T,
    27                           ; INCIDENTAL, SPECIAL, EXEMPLARY, OR CONSEQUENTIAL DAMAGES (INCLUDING BUT NOT LIMITED TO
                                 
    28                           ; PROCUREMENT OF SUBSTITUTE GOODS OR SERVICES; LOSS OF USE, DATA OR PROFITS; OR BUSINESS
                                 
    29                           ; INTERRUPTION) HOWSOEVER CAUSED AND ON ANY THEORY OF LIABILITY, WHETHER IN CONTRACT, ST
                                 RICT
    30                           ; LIABILITY, OR TORT (INCLUDING NEGLIGENCE OR OTHERWISE) ARISING IN ANY WAY OUT OF THE U
                                 SE OF
    31                           ; THIS SOFTWARE, EVEN IF ADVISED OF THE POSSIBILITY OF SUCH DAMAGE.
    32                           ; 
    33                           
    34                           
    35                           ; 
    36                           ; Code-generator required, PIC16F876 Definitions
    37                           ; 
    38  0004                     fsr0 equ 04h
    39  0004                     indf equ 00h
    40  0000                     indf0 equ 00h
    41  0000                     pc equ 02h
    42  0002                     pcl equ 02h
    43  0002                     pclath equ 0Ah
    44  000A                     status equ 03h
    45  0003                     
     2                           opt pagewidth 120
     3  0000                     byte0	macro	val
     4                           	(getbyte(val,0))
     5                           endm
     6  0000                     byte1	macro	val
     7                           	(getbyte(val,1))
     8                           endm
     9  0000                     byte2	macro	val
    10                           	(getbyte(val,2))
    11                           endm
    12  0000                     byte3	macro	val
    13                           	(getbyte(val,3))
    14                           endm
    15  0000                     byte4	macro	val
    16                           	(getbyte(val,4))
    17                           endm
    18  0000                     byte5	macro	val
    19                           	(getbyte(val,5))
    20                           endm
    21  0000                     byte6	macro	val
    22                           	(getbyte(val,6))
    23                           endm
    24  0000                     byte7	macro	val
    25                           	(getbyte(val,7))
    26                           endm
    27  0000                     getword	macro	val,pos
    28                           	(((val) >> (8 * pos)) and 0xffff)
    29                           endm
    30  0000                     word0	macro	val
    31                           	(getword(val,0))
    32                           endm
    33  0000                     word1	macro	val
    34                           	(getword(val,2))
    35                           endm
    36  0000                     word2	macro	val
    37                           	(getword(val,4))
    38                           endm
    39  0000                     word3	macro	val
    40                           	(getword(val,6))
    41                           endm
    42  0000                     gettword	macro	val,pos
    43                           	(((val) >> (8 * pos)) and 0xffffff)
    44                           endm
    45  0000                     tword0	macro	val
    46                           	(gettword(val,0))
    47                           endm
    48  0000                     tword1	macro	val
    49                           	(gettword(val,3))
    50                           endm
    51  0000                     tword2	macro	val
    52                           	(gettword(val,6))
    53                           endm
    54  0000                     getdword	macro	val,pos
    55                           	(((val) >> (8 * pos)) and 0xffffffff)
    56                           endm
    57  0000                     dword0	macro	val
    58                           	(getdword(val,0))
    59                           endm
    60  0000                     dword1	macro	val
    61                           	(getdword(val,4))
    62                           endm
    63  0000                     clrc	macro
    64                           	bcf	3,0
    65                           	endm
    66  0000                     clrz	macro
    67                           	bcf	3,2
    68                           	endm
    69  0000                     setc	macro
    70                           	bsf	3,0
    71                           	endm
    72  0000                     setz	macro
    73                           	bsf	3,2
    74                           	endm
    75  0000                     skipc	macro
    76                           	btfss	3,0
    77                           	endm
    78  0000                     skipz	macro
    79                           	btfss	3,2
    80                           	endm
    81  0000                     skipnc	macro
    82                           	btfsc	3,0
    83                           	endm
    84  0000                     skipnz	macro
    85                           	btfsc	3,2
    86                           	endm
    87  0000                     # 54 "C:\Program Files (x86)\Microchip\xc8\v2.00\pic\include\pic16f876.h"
    88                           INDF equ 00h ;# 
    89  0000                     # 61 "C:\Program Files (x86)\Microchip\xc8\v2.00\pic\include\pic16f876.h"
    90                           TMR0 equ 01h ;# 
    91  0001                     # 68 "C:\Program Files (x86)\Microchip\xc8\v2.00\pic\include\pic16f876.h"
    92                           PCL equ 02h ;# 
    93  0002                     # 75 "C:\Program Files (x86)\Microchip\xc8\v2.00\pic\include\pic16f876.h"
    94                           STATUS equ 03h ;# 
    95  0003                     # 161 "C:\Program Files (x86)\Microchip\xc8\v2.00\pic\include\pic16f876.h"
    96                           FSR equ 04h ;# 
    97  0004                     # 168 "C:\Program Files (x86)\Microchip\xc8\v2.00\pic\include\pic16f876.h"
    98                           PORTA equ 05h ;# 
    99  0005                     # 218 "C:\Program Files (x86)\Microchip\xc8\v2.00\pic\include\pic16f876.h"
   100                           PORTB equ 06h ;# 
   101  0006                     # 280 "C:\Program Files (x86)\Microchip\xc8\v2.00\pic\include\pic16f876.h"
   102                           PORTC equ 07h ;# 
   103  0007                     # 342 "C:\Program Files (x86)\Microchip\xc8\v2.00\pic\include\pic16f876.h"
   104                           PCLATH equ 0Ah ;# 
   105  000A                     # 362 "C:\Program Files (x86)\Microchip\xc8\v2.00\pic\include\pic16f876.h"
   106                           INTCON equ 0Bh ;# 
   107  000B                     # 440 "C:\Program Files (x86)\Microchip\xc8\v2.00\pic\include\pic16f876.h"
   108                           PIR1 equ 0Ch ;# 
   109  000C                     # 496 "C:\Program Files (x86)\Microchip\xc8\v2.00\pic\include\pic16f876.h"
   110                           PIR2 equ 0Dh ;# 
   111  000D                     # 529 "C:\Program Files (x86)\Microchip\xc8\v2.00\pic\include\pic16f876.h"
   112                           TMR1 equ 0Eh ;# 
   113  000E                     # 536 "C:\Program Files (x86)\Microchip\xc8\v2.00\pic\include\pic16f876.h"
   114                           TMR1L equ 0Eh ;# 
   115  000E                     # 543 "C:\Program Files (x86)\Microchip\xc8\v2.00\pic\include\pic16f876.h"
   116                           TMR1H equ 0Fh ;# 
   117  000F                     # 550 "C:\Program Files (x86)\Microchip\xc8\v2.00\pic\include\pic16f876.h"
   118                           T1CON equ 010h ;# 
   119  0010                     # 627 "C:\Program Files (x86)\Microchip\xc8\v2.00\pic\include\pic16f876.h"
   120                           TMR2 equ 011h ;# 
   121  0011                     # 634 "C:\Program Files (x86)\Microchip\xc8\v2.00\pic\include\pic16f876.h"
   122                           T2CON equ 012h ;# 
   123  0012                     # 705 "C:\Program Files (x86)\Microchip\xc8\v2.00\pic\include\pic16f876.h"
   124                           SSPBUF equ 013h ;# 
   125  0013                     # 712 "C:\Program Files (x86)\Microchip\xc8\v2.00\pic\include\pic16f876.h"
   126                           SSPCON equ 014h ;# 
   127  0014                     # 782 "C:\Program Files (x86)\Microchip\xc8\v2.00\pic\include\pic16f876.h"
   128                           CCPR1 equ 015h ;# 
   129  0015                     # 789 "C:\Program Files (x86)\Microchip\xc8\v2.00\pic\include\pic16f876.h"
   130                           CCPR1L equ 015h ;# 
   131  0015                     # 796 "C:\Program Files (x86)\Microchip\xc8\v2.00\pic\include\pic16f876.h"
   132                           CCPR1H equ 016h ;# 
   133  0016                     # 803 "C:\Program Files (x86)\Microchip\xc8\v2.00\pic\include\pic16f876.h"
   134                           CCP1CON equ 017h ;# 
   135  0017                     # 861 "C:\Program Files (x86)\Microchip\xc8\v2.00\pic\include\pic16f876.h"
   136                           RCSTA equ 018h ;# 
   137  0018                     # 956 "C:\Program Files (x86)\Microchip\xc8\v2.00\pic\include\pic16f876.h"
   138                           TXREG equ 019h ;# 
   139  0019                     # 963 "C:\Program Files (x86)\Microchip\xc8\v2.00\pic\include\pic16f876.h"
   140                           RCREG equ 01Ah ;# 
   141  001A                     # 970 "C:\Program Files (x86)\Microchip\xc8\v2.00\pic\include\pic16f876.h"
   142                           CCPR2 equ 01Bh ;# 
   143  001B                     # 977 "C:\Program Files (x86)\Microchip\xc8\v2.00\pic\include\pic16f876.h"
   144                           CCPR2L equ 01Bh ;# 
   145  001B                     # 984 "C:\Program Files (x86)\Microchip\xc8\v2.00\pic\include\pic16f876.h"
   146                           CCPR2H equ 01Ch ;# 
   147  001C                     # 991 "C:\Program Files (x86)\Microchip\xc8\v2.00\pic\include\pic16f876.h"
   148                           CCP2CON equ 01Dh ;# 
   149  001D                     # 1049 "C:\Program Files (x86)\Microchip\xc8\v2.00\pic\include\pic16f876.h"
   150                           ADRESH equ 01Eh ;# 
   151  001E                     # 1056 "C:\Program Files (x86)\Microchip\xc8\v2.00\pic\include\pic16f876.h"
   152                           ADCON0 equ 01Fh ;# 
   153  001F                     # 1152 "C:\Program Files (x86)\Microchip\xc8\v2.00\pic\include\pic16f876.h"
   154                           OPTION_REG equ 081h ;# 
   155  0081                     # 1222 "C:\Program Files (x86)\Microchip\xc8\v2.00\pic\include\pic16f876.h"
   156                           TRISA equ 085h ;# 
   157  0085                     # 1272 "C:\Program Files (x86)\Microchip\xc8\v2.00\pic\include\pic16f876.h"
   158                           TRISB equ 086h ;# 
   159  0086                     # 1334 "C:\Program Files (x86)\Microchip\xc8\v2.00\pic\include\pic16f876.h"
   160                           TRISC equ 087h ;# 
   161  0087                     # 1396 "C:\Program Files (x86)\Microchip\xc8\v2.00\pic\include\pic16f876.h"
   162                           PIE1 equ 08Ch ;# 
   163  008C                     # 1452 "C:\Program Files (x86)\Microchip\xc8\v2.00\pic\include\pic16f876.h"
   164                           PIE2 equ 08Dh ;# 
   165  008D                     # 1485 "C:\Program Files (x86)\Microchip\xc8\v2.00\pic\include\pic16f876.h"
   166                           PCON equ 08Eh ;# 
   167  008E                     # 1519 "C:\Program Files (x86)\Microchip\xc8\v2.00\pic\include\pic16f876.h"
   168                           SSPCON2 equ 091h ;# 
   169  0091                     # 1581 "C:\Program Files (x86)\Microchip\xc8\v2.00\pic\include\pic16f876.h"
   170                           PR2 equ 092h ;# 
   171  0092                     # 1588 "C:\Program Files (x86)\Microchip\xc8\v2.00\pic\include\pic16f876.h"
   172                           SSPADD equ 093h ;# 
   173  0093                     # 1595 "C:\Program Files (x86)\Microchip\xc8\v2.00\pic\include\pic16f876.h"
   174                           SSPSTAT equ 094h ;# 
   175  0094                     # 1764 "C:\Program Files (x86)\Microchip\xc8\v2.00\pic\include\pic16f876.h"
   176                           TXSTA equ 098h ;# 
   177  0098                     # 1845 "C:\Program Files (x86)\Microchip\xc8\v2.00\pic\include\pic16f876.h"
   178                           SPBRG equ 099h ;# 
   179  0099                     # 1852 "C:\Program Files (x86)\Microchip\xc8\v2.00\pic\include\pic16f876.h"
   180                           ADRESL equ 09Eh ;# 
   181  009E                     # 1859 "C:\Program Files (x86)\Microchip\xc8\v2.00\pic\include\pic16f876.h"
   182                           ADCON1 equ 09Fh ;# 
   183  009F                     # 1912 "C:\Program Files (x86)\Microchip\xc8\v2.00\pic\include\pic16f876.h"
   184                           EEDATA equ 010Ch ;# 
   185  010C                     # 1919 "C:\Program Files (x86)\Microchip\xc8\v2.00\pic\include\pic16f876.h"
   186                           EEADR equ 010Dh ;# 
   187  010D                     # 1926 "C:\Program Files (x86)\Microchip\xc8\v2.00\pic\include\pic16f876.h"
   188                           EEDATH equ 010Eh ;# 
   189  010E                     # 1933 "C:\Program Files (x86)\Microchip\xc8\v2.00\pic\include\pic16f876.h"
   190                           EEADRH equ 010Fh ;# 
   191  010F                     # 1940 "C:\Program Files (x86)\Microchip\xc8\v2.00\pic\include\pic16f876.h"
   192                           EECON1 equ 018Ch ;# 
   193  018C                     # 1985 "C:\Program Files (x86)\Microchip\xc8\v2.00\pic\include\pic16f876.h"
   194                           EECON2 equ 018Dh ;# 
   195  018D                     # 54 "C:\Program Files (x86)\Microchip\xc8\v2.00\pic\include\pic16f876.h"
   196                           INDF equ 00h ;# 
   197  0000                     # 61 "C:\Program Files (x86)\Microchip\xc8\v2.00\pic\include\pic16f876.h"
   198                           TMR0 equ 01h ;# 
   199  0001                     # 68 "C:\Program Files (x86)\Microchip\xc8\v2.00\pic\include\pic16f876.h"
   200                           PCL equ 02h ;# 
   201  0002                     # 75 "C:\Program Files (x86)\Microchip\xc8\v2.00\pic\include\pic16f876.h"
   202                           STATUS equ 03h ;# 
   203  0003                     # 161 "C:\Program Files (x86)\Microchip\xc8\v2.00\pic\include\pic16f876.h"
   204                           FSR equ 04h ;# 
   205  0004                     # 168 "C:\Program Files (x86)\Microchip\xc8\v2.00\pic\include\pic16f876.h"
   206                           PORTA equ 05h ;# 
   207  0005                     # 218 "C:\Program Files (x86)\Microchip\xc8\v2.00\pic\include\pic16f876.h"
   208                           PORTB equ 06h ;# 
   209  0006                     # 280 "C:\Program Files (x86)\Microchip\xc8\v2.00\pic\include\pic16f876.h"
   210                           PORTC equ 07h ;# 
   211  0007                     # 342 "C:\Program Files (x86)\Microchip\xc8\v2.00\pic\include\pic16f876.h"
   212                           PCLATH equ 0Ah ;# 
   213  000A                     # 362 "C:\Program Files (x86)\Microchip\xc8\v2.00\pic\include\pic16f876.h"
   214                           INTCON equ 0Bh ;# 
   215  000B                     # 440 "C:\Program Files (x86)\Microchip\xc8\v2.00\pic\include\pic16f876.h"
   216                           PIR1 equ 0Ch ;# 
   217  000C                     # 496 "C:\Program Files (x86)\Microchip\xc8\v2.00\pic\include\pic16f876.h"
   218                           PIR2 equ 0Dh ;# 
   219  000D                     # 529 "C:\Program Files (x86)\Microchip\xc8\v2.00\pic\include\pic16f876.h"
   220                           TMR1 equ 0Eh ;# 
   221  000E                     # 536 "C:\Program Files (x86)\Microchip\xc8\v2.00\pic\include\pic16f876.h"
   222                           TMR1L equ 0Eh ;# 
   223  000E                     # 543 "C:\Program Files (x86)\Microchip\xc8\v2.00\pic\include\pic16f876.h"
   224                           TMR1H equ 0Fh ;# 
   225  000F                     # 550 "C:\Program Files (x86)\Microchip\xc8\v2.00\pic\include\pic16f876.h"
   226                           T1CON equ 010h ;# 
   227  0010                     # 627 "C:\Program Files (x86)\Microchip\xc8\v2.00\pic\include\pic16f876.h"
   228                           TMR2 equ 011h ;# 
   229  0011                     # 634 "C:\Program Files (x86)\Microchip\xc8\v2.00\pic\include\pic16f876.h"
   230                           T2CON equ 012h ;# 
   231  0012                     # 705 "C:\Program Files (x86)\Microchip\xc8\v2.00\pic\include\pic16f876.h"
   232                           SSPBUF equ 013h ;# 
   233  0013                     # 712 "C:\Program Files (x86)\Microchip\xc8\v2.00\pic\include\pic16f876.h"
   234                           SSPCON equ 014h ;# 
   235  0014                     # 782 "C:\Program Files (x86)\Microchip\xc8\v2.00\pic\include\pic16f876.h"
   236                           CCPR1 equ 015h ;# 
   237  0015                     # 789 "C:\Program Files (x86)\Microchip\xc8\v2.00\pic\include\pic16f876.h"
   238                           CCPR1L equ 015h ;# 
   239  0015                     # 796 "C:\Program Files (x86)\Microchip\xc8\v2.00\pic\include\pic16f876.h"
   240                           CCPR1H equ 016h ;# 
   241  0016                     # 803 "C:\Program Files (x86)\Microchip\xc8\v2.00\pic\include\pic16f876.h"
   242                           CCP1CON equ 017h ;# 
   243  0017                     # 861 "C:\Program Files (x86)\Microchip\xc8\v2.00\pic\include\pic16f876.h"
   244                           RCSTA equ 018h ;# 
   245  0018                     # 956 "C:\Program Files (x86)\Microchip\xc8\v2.00\pic\include\pic16f876.h"
   246                           TXREG equ 019h ;# 
   247  0019                     # 963 "C:\Program Files (x86)\Microchip\xc8\v2.00\pic\include\pic16f876.h"
   248                           RCREG equ 01Ah ;# 
   249  001A                     # 970 "C:\Program Files (x86)\Microchip\xc8\v2.00\pic\include\pic16f876.h"
   250                           CCPR2 equ 01Bh ;# 
   251  001B                     # 977 "C:\Program Files (x86)\Microchip\xc8\v2.00\pic\include\pic16f876.h"
   252                           CCPR2L equ 01Bh ;# 
   253  001B                     # 984 "C:\Program Files (x86)\Microchip\xc8\v2.00\pic\include\pic16f876.h"
   254                           CCPR2H equ 01Ch ;# 
   255  001C                     # 991 "C:\Program Files (x86)\Microchip\xc8\v2.00\pic\include\pic16f876.h"
   256                           CCP2CON equ 01Dh ;# 
   257  001D                     # 1049 "C:\Program Files (x86)\Microchip\xc8\v2.00\pic\include\pic16f876.h"
   258                           ADRESH equ 01Eh ;# 
   259  001E                     # 1056 "C:\Program Files (x86)\Microchip\xc8\v2.00\pic\include\pic16f876.h"
   260                           ADCON0 equ 01Fh ;# 
   261  001F                     # 1152 "C:\Program Files (x86)\Microchip\xc8\v2.00\pic\include\pic16f876.h"
   262                           OPTION_REG equ 081h ;# 
   263  0081                     # 1222 "C:\Program Files (x86)\Microchip\xc8\v2.00\pic\include\pic16f876.h"
   264                           TRISA equ 085h ;# 
   265  0085                     # 1272 "C:\Program Files (x86)\Microchip\xc8\v2.00\pic\include\pic16f876.h"
   266                           TRISB equ 086h ;# 
   267  0086                     # 1334 "C:\Program Files (x86)\Microchip\xc8\v2.00\pic\include\pic16f876.h"
   268                           TRISC equ 087h ;# 
   269  0087                     # 1396 "C:\Program Files (x86)\Microchip\xc8\v2.00\pic\include\pic16f876.h"
   270                           PIE1 equ 08Ch ;# 
   271  008C                     # 1452 "C:\Program Files (x86)\Microchip\xc8\v2.00\pic\include\pic16f876.h"
   272                           PIE2 equ 08Dh ;# 
   273  008D                     # 1485 "C:\Program Files (x86)\Microchip\xc8\v2.00\pic\include\pic16f876.h"
   274                           PCON equ 08Eh ;# 
   275  008E                     # 1519 "C:\Program Files (x86)\Microchip\xc8\v2.00\pic\include\pic16f876.h"
   276                           SSPCON2 equ 091h ;# 
   277  0091                     # 1581 "C:\Program Files (x86)\Microchip\xc8\v2.00\pic\include\pic16f876.h"
   278                           PR2 equ 092h ;# 
   279  0092                     # 1588 "C:\Program Files (x86)\Microchip\xc8\v2.00\pic\include\pic16f876.h"
   280                           SSPADD equ 093h ;# 
   281  0093                     # 1595 "C:\Program Files (x86)\Microchip\xc8\v2.00\pic\include\pic16f876.h"
   282                           SSPSTAT equ 094h ;# 
   283  0094                     # 1764 "C:\Program Files (x86)\Microchip\xc8\v2.00\pic\include\pic16f876.h"
   284                           TXSTA equ 098h ;# 
   285  0098                     # 1845 "C:\Program Files (x86)\Microchip\xc8\v2.00\pic\include\pic16f876.h"
   286                           SPBRG equ 099h ;# 
   287  0099                     # 1852 "C:\Program Files (x86)\Microchip\xc8\v2.00\pic\include\pic16f876.h"
   288                           ADRESL equ 09Eh ;# 
   289  009E                     # 1859 "C:\Program Files (x86)\Microchip\xc8\v2.00\pic\include\pic16f876.h"
   290                           ADCON1 equ 09Fh ;# 
   291  009F                     # 1912 "C:\Program Files (x86)\Microchip\xc8\v2.00\pic\include\pic16f876.h"
   292                           EEDATA equ 010Ch ;# 
   293  010C                     # 1919 "C:\Program Files (x86)\Microchip\xc8\v2.00\pic\include\pic16f876.h"
   294                           EEADR equ 010Dh ;# 
   295  010D                     # 1926 "C:\Program Files (x86)\Microchip\xc8\v2.00\pic\include\pic16f876.h"
   296                           EEDATH equ 010Eh ;# 
   297  010E                     # 1933 "C:\Program Files (x86)\Microchip\xc8\v2.00\pic\include\pic16f876.h"
   298                           EEADRH equ 010Fh ;# 
   299  010F                     # 1940 "C:\Program Files (x86)\Microchip\xc8\v2.00\pic\include\pic16f876.h"
   300                           EECON1 equ 018Ch ;# 
   301  018C                     # 1985 "C:\Program Files (x86)\Microchip\xc8\v2.00\pic\include\pic16f876.h"
   302                           EECON2 equ 018Dh ;# 
   303  018D                     # 54 "C:\Program Files (x86)\Microchip\xc8\v2.00\pic\include\pic16f876.h"
   304                           INDF equ 00h ;# 
   305  0000                     # 61 "C:\Program Files (x86)\Microchip\xc8\v2.00\pic\include\pic16f876.h"
   306                           TMR0 equ 01h ;# 
   307  0001                     # 68 "C:\Program Files (x86)\Microchip\xc8\v2.00\pic\include\pic16f876.h"
   308                           PCL equ 02h ;# 
   309  0002                     # 75 "C:\Program Files (x86)\Microchip\xc8\v2.00\pic\include\pic16f876.h"
   310                           STATUS equ 03h ;# 
   311  0003                     # 161 "C:\Program Files (x86)\Microchip\xc8\v2.00\pic\include\pic16f876.h"
   312                           FSR equ 04h ;# 
   313  0004                     # 168 "C:\Program Files (x86)\Microchip\xc8\v2.00\pic\include\pic16f876.h"
   314                           PORTA equ 05h ;# 
   315  0005                     # 218 "C:\Program Files (x86)\Microchip\xc8\v2.00\pic\include\pic16f876.h"
   316                           PORTB equ 06h ;# 
   317  0006                     # 280 "C:\Program Files (x86)\Microchip\xc8\v2.00\pic\include\pic16f876.h"
   318                           PORTC equ 07h ;# 
   319  0007                     # 342 "C:\Program Files (x86)\Microchip\xc8\v2.00\pic\include\pic16f876.h"
   320                           PCLATH equ 0Ah ;# 
   321  000A                     # 362 "C:\Program Files (x86)\Microchip\xc8\v2.00\pic\include\pic16f876.h"
   322                           INTCON equ 0Bh ;# 
   323  000B                     # 440 "C:\Program Files (x86)\Microchip\xc8\v2.00\pic\include\pic16f876.h"
   324                           PIR1 equ 0Ch ;# 
   325  000C                     # 496 "C:\Program Files (x86)\Microchip\xc8\v2.00\pic\include\pic16f876.h"
   326                           PIR2 equ 0Dh ;# 
   327  000D                     # 529 "C:\Program Files (x86)\Microchip\xc8\v2.00\pic\include\pic16f876.h"
   328                           TMR1 equ 0Eh ;# 
   329  000E                     # 536 "C:\Program Files (x86)\Microchip\xc8\v2.00\pic\include\pic16f876.h"
   330                           TMR1L equ 0Eh ;# 
   331  000E                     # 543 "C:\Program Files (x86)\Microchip\xc8\v2.00\pic\include\pic16f876.h"
   332                           TMR1H equ 0Fh ;# 
   333  000F                     # 550 "C:\Program Files (x86)\Microchip\xc8\v2.00\pic\include\pic16f876.h"
   334                           T1CON equ 010h ;# 
   335  0010                     # 627 "C:\Program Files (x86)\Microchip\xc8\v2.00\pic\include\pic16f876.h"
   336                           TMR2 equ 011h ;# 
   337  0011                     # 634 "C:\Program Files (x86)\Microchip\xc8\v2.00\pic\include\pic16f876.h"
   338                           T2CON equ 012h ;# 
   339  0012                     # 705 "C:\Program Files (x86)\Microchip\xc8\v2.00\pic\include\pic16f876.h"
   340                           SSPBUF equ 013h ;# 
   341  0013                     # 712 "C:\Program Files (x86)\Microchip\xc8\v2.00\pic\include\pic16f876.h"
   342                           SSPCON equ 014h ;# 
   343  0014                     # 782 "C:\Program Files (x86)\Microchip\xc8\v2.00\pic\include\pic16f876.h"
   344                           CCPR1 equ 015h ;# 
   345  0015                     # 789 "C:\Program Files (x86)\Microchip\xc8\v2.00\pic\include\pic16f876.h"
   346                           CCPR1L equ 015h ;# 
   347  0015                     # 796 "C:\Program Files (x86)\Microchip\xc8\v2.00\pic\include\pic16f876.h"
   348                           CCPR1H equ 016h ;# 
   349  0016                     # 803 "C:\Program Files (x86)\Microchip\xc8\v2.00\pic\include\pic16f876.h"
   350                           CCP1CON equ 017h ;# 
   351  0017                     # 861 "C:\Program Files (x86)\Microchip\xc8\v2.00\pic\include\pic16f876.h"
   352                           RCSTA equ 018h ;# 
   353  0018                     # 956 "C:\Program Files (x86)\Microchip\xc8\v2.00\pic\include\pic16f876.h"
   354                           TXREG equ 019h ;# 
   355  0019                     # 963 "C:\Program Files (x86)\Microchip\xc8\v2.00\pic\include\pic16f876.h"
   356                           RCREG equ 01Ah ;# 
   357  001A                     # 970 "C:\Program Files (x86)\Microchip\xc8\v2.00\pic\include\pic16f876.h"
   358                           CCPR2 equ 01Bh ;# 
   359  001B                     # 977 "C:\Program Files (x86)\Microchip\xc8\v2.00\pic\include\pic16f876.h"
   360                           CCPR2L equ 01Bh ;# 
   361  001B                     # 984 "C:\Program Files (x86)\Microchip\xc8\v2.00\pic\include\pic16f876.h"
   362                           CCPR2H equ 01Ch ;# 
   363  001C                     # 991 "C:\Program Files (x86)\Microchip\xc8\v2.00\pic\include\pic16f876.h"
   364                           CCP2CON equ 01Dh ;# 
   365  001D                     # 1049 "C:\Program Files (x86)\Microchip\xc8\v2.00\pic\include\pic16f876.h"
   366                           ADRESH equ 01Eh ;# 
   367  001E                     # 1056 "C:\Program Files (x86)\Microchip\xc8\v2.00\pic\include\pic16f876.h"
   368                           ADCON0 equ 01Fh ;# 
   369  001F                     # 1152 "C:\Program Files (x86)\Microchip\xc8\v2.00\pic\include\pic16f876.h"
   370                           OPTION_REG equ 081h ;# 
   371  0081                     # 1222 "C:\Program Files (x86)\Microchip\xc8\v2.00\pic\include\pic16f876.h"
   372                           TRISA equ 085h ;# 
   373  0085                     # 1272 "C:\Program Files (x86)\Microchip\xc8\v2.00\pic\include\pic16f876.h"
   374                           TRISB equ 086h ;# 
   375  0086                     # 1334 "C:\Program Files (x86)\Microchip\xc8\v2.00\pic\include\pic16f876.h"
   376                           TRISC equ 087h ;# 
   377  0087                     # 1396 "C:\Program Files (x86)\Microchip\xc8\v2.00\pic\include\pic16f876.h"
   378                           PIE1 equ 08Ch ;# 
   379  008C                     # 1452 "C:\Program Files (x86)\Microchip\xc8\v2.00\pic\include\pic16f876.h"
   380                           PIE2 equ 08Dh ;# 
   381  008D                     # 1485 "C:\Program Files (x86)\Microchip\xc8\v2.00\pic\include\pic16f876.h"
   382                           PCON equ 08Eh ;# 
   383  008E                     # 1519 "C:\Program Files (x86)\Microchip\xc8\v2.00\pic\include\pic16f876.h"
   384                           SSPCON2 equ 091h ;# 
   385  0091                     # 1581 "C:\Program Files (x86)\Microchip\xc8\v2.00\pic\include\pic16f876.h"
   386                           PR2 equ 092h ;# 
   387  0092                     # 1588 "C:\Program Files (x86)\Microchip\xc8\v2.00\pic\include\pic16f876.h"
   388                           SSPADD equ 093h ;# 
   389  0093                     # 1595 "C:\Program Files (x86)\Microchip\xc8\v2.00\pic\include\pic16f876.h"
   390                           SSPSTAT equ 094h ;# 
   391  0094                     # 1764 "C:\Program Files (x86)\Microchip\xc8\v2.00\pic\include\pic16f876.h"
   392                           TXSTA equ 098h ;# 
   393  0098                     # 1845 "C:\Program Files (x86)\Microchip\xc8\v2.00\pic\include\pic16f876.h"
   394                           SPBRG equ 099h ;# 
   395  0099                     # 1852 "C:\Program Files (x86)\Microchip\xc8\v2.00\pic\include\pic16f876.h"
   396                           ADRESL equ 09Eh ;# 
   397  009E                     # 1859 "C:\Program Files (x86)\Microchip\xc8\v2.00\pic\include\pic16f876.h"
   398                           ADCON1 equ 09Fh ;# 
   399  009F                     # 1912 "C:\Program Files (x86)\Microchip\xc8\v2.00\pic\include\pic16f876.h"
   400                           EEDATA equ 010Ch ;# 
   401  010C                     # 1919 "C:\Program Files (x86)\Microchip\xc8\v2.00\pic\include\pic16f876.h"
   402                           EEADR equ 010Dh ;# 
   403  010D                     # 1926 "C:\Program Files (x86)\Microchip\xc8\v2.00\pic\include\pic16f876.h"
   404                           EEDATH equ 010Eh ;# 
   405  010E                     # 1933 "C:\Program Files (x86)\Microchip\xc8\v2.00\pic\include\pic16f876.h"
   406                           EEADRH equ 010Fh ;# 
   407  010F                     # 1940 "C:\Program Files (x86)\Microchip\xc8\v2.00\pic\include\pic16f876.h"
   408                           EECON1 equ 018Ch ;# 
   409  018C                     # 1985 "C:\Program Files (x86)\Microchip\xc8\v2.00\pic\include\pic16f876.h"
   410                           EECON2 equ 018Dh ;# 
   411  018D                     # 54 "C:\Program Files (x86)\Microchip\xc8\v2.00\pic\include\pic16f876.h"
   412                           INDF equ 00h ;# 
   413  0000                     # 61 "C:\Program Files (x86)\Microchip\xc8\v2.00\pic\include\pic16f876.h"
   414                           TMR0 equ 01h ;# 
   415  0001                     # 68 "C:\Program Files (x86)\Microchip\xc8\v2.00\pic\include\pic16f876.h"
   416                           PCL equ 02h ;# 
   417  0002                     # 75 "C:\Program Files (x86)\Microchip\xc8\v2.00\pic\include\pic16f876.h"
   418                           STATUS equ 03h ;# 
   419  0003                     # 161 "C:\Program Files (x86)\Microchip\xc8\v2.00\pic\include\pic16f876.h"
   420                           FSR equ 04h ;# 
   421  0004                     # 168 "C:\Program Files (x86)\Microchip\xc8\v2.00\pic\include\pic16f876.h"
   422                           PORTA equ 05h ;# 
   423  0005                     # 218 "C:\Program Files (x86)\Microchip\xc8\v2.00\pic\include\pic16f876.h"
   424                           PORTB equ 06h ;# 
   425  0006                     # 280 "C:\Program Files (x86)\Microchip\xc8\v2.00\pic\include\pic16f876.h"
   426                           PORTC equ 07h ;# 
   427  0007                     # 342 "C:\Program Files (x86)\Microchip\xc8\v2.00\pic\include\pic16f876.h"
   428                           PCLATH equ 0Ah ;# 
   429  000A                     # 362 "C:\Program Files (x86)\Microchip\xc8\v2.00\pic\include\pic16f876.h"
   430                           INTCON equ 0Bh ;# 
   431  000B                     # 440 "C:\Program Files (x86)\Microchip\xc8\v2.00\pic\include\pic16f876.h"
   432                           PIR1 equ 0Ch ;# 
   433  000C                     # 496 "C:\Program Files (x86)\Microchip\xc8\v2.00\pic\include\pic16f876.h"
   434                           PIR2 equ 0Dh ;# 
   435  000D                     # 529 "C:\Program Files (x86)\Microchip\xc8\v2.00\pic\include\pic16f876.h"
   436                           TMR1 equ 0Eh ;# 
   437  000E                     # 536 "C:\Program Files (x86)\Microchip\xc8\v2.00\pic\include\pic16f876.h"
   438                           TMR1L equ 0Eh ;# 
   439  000E                     # 543 "C:\Program Files (x86)\Microchip\xc8\v2.00\pic\include\pic16f876.h"
   440                           TMR1H equ 0Fh ;# 
   441  000F                     # 550 "C:\Program Files (x86)\Microchip\xc8\v2.00\pic\include\pic16f876.h"
   442                           T1CON equ 010h ;# 
   443  0010                     # 627 "C:\Program Files (x86)\Microchip\xc8\v2.00\pic\include\pic16f876.h"
   444                           TMR2 equ 011h ;# 
   445  0011                     # 634 "C:\Program Files (x86)\Microchip\xc8\v2.00\pic\include\pic16f876.h"
   446                           T2CON equ 012h ;# 
   447  0012                     # 705 "C:\Program Files (x86)\Microchip\xc8\v2.00\pic\include\pic16f876.h"
   448                           SSPBUF equ 013h ;# 
   449  0013                     # 712 "C:\Program Files (x86)\Microchip\xc8\v2.00\pic\include\pic16f876.h"
   450                           SSPCON equ 014h ;# 
   451  0014                     # 782 "C:\Program Files (x86)\Microchip\xc8\v2.00\pic\include\pic16f876.h"
   452                           CCPR1 equ 015h ;# 
   453  0015                     # 789 "C:\Program Files (x86)\Microchip\xc8\v2.00\pic\include\pic16f876.h"
   454                           CCPR1L equ 015h ;# 
   455  0015                     # 796 "C:\Program Files (x86)\Microchip\xc8\v2.00\pic\include\pic16f876.h"
   456                           CCPR1H equ 016h ;# 
   457  0016                     # 803 "C:\Program Files (x86)\Microchip\xc8\v2.00\pic\include\pic16f876.h"
   458                           CCP1CON equ 017h ;# 
   459  0017                     # 861 "C:\Program Files (x86)\Microchip\xc8\v2.00\pic\include\pic16f876.h"
   460                           RCSTA equ 018h ;# 
   461  0018                     # 956 "C:\Program Files (x86)\Microchip\xc8\v2.00\pic\include\pic16f876.h"
   462                           TXREG equ 019h ;# 
   463  0019                     # 963 "C:\Program Files (x86)\Microchip\xc8\v2.00\pic\include\pic16f876.h"
   464                           RCREG equ 01Ah ;# 
   465  001A                     # 970 "C:\Program Files (x86)\Microchip\xc8\v2.00\pic\include\pic16f876.h"
   466                           CCPR2 equ 01Bh ;# 
   467  001B                     # 977 "C:\Program Files (x86)\Microchip\xc8\v2.00\pic\include\pic16f876.h"
   468                           CCPR2L equ 01Bh ;# 
   469  001B                     # 984 "C:\Program Files (x86)\Microchip\xc8\v2.00\pic\include\pic16f876.h"
   470                           CCPR2H equ 01Ch ;# 
   471  001C                     # 991 "C:\Program Files (x86)\Microchip\xc8\v2.00\pic\include\pic16f876.h"
   472                           CCP2CON equ 01Dh ;# 
   473  001D                     # 1049 "C:\Program Files (x86)\Microchip\xc8\v2.00\pic\include\pic16f876.h"
   474                           ADRESH equ 01Eh ;# 
   475  001E                     # 1056 "C:\Program Files (x86)\Microchip\xc8\v2.00\pic\include\pic16f876.h"
   476                           ADCON0 equ 01Fh ;# 
   477  001F                     # 1152 "C:\Program Files (x86)\Microchip\xc8\v2.00\pic\include\pic16f876.h"
   478                           OPTION_REG equ 081h ;# 
   479  0081                     # 1222 "C:\Program Files (x86)\Microchip\xc8\v2.00\pic\include\pic16f876.h"
   480                           TRISA equ 085h ;# 
   481  0085                     # 1272 "C:\Program Files (x86)\Microchip\xc8\v2.00\pic\include\pic16f876.h"
   482                           TRISB equ 086h ;# 
   483  0086                     # 1334 "C:\Program Files (x86)\Microchip\xc8\v2.00\pic\include\pic16f876.h"
   484                           TRISC equ 087h ;# 
   485  0087                     # 1396 "C:\Program Files (x86)\Microchip\xc8\v2.00\pic\include\pic16f876.h"
   486                           PIE1 equ 08Ch ;# 
   487  008C                     # 1452 "C:\Program Files (x86)\Microchip\xc8\v2.00\pic\include\pic16f876.h"
   488                           PIE2 equ 08Dh ;# 
   489  008D                     # 1485 "C:\Program Files (x86)\Microchip\xc8\v2.00\pic\include\pic16f876.h"
   490                           PCON equ 08Eh ;# 
   491  008E                     # 1519 "C:\Program Files (x86)\Microchip\xc8\v2.00\pic\include\pic16f876.h"
   492                           SSPCON2 equ 091h ;# 
   493  0091                     # 1581 "C:\Program Files (x86)\Microchip\xc8\v2.00\pic\include\pic16f876.h"
   494                           PR2 equ 092h ;# 
   495  0092                     # 1588 "C:\Program Files (x86)\Microchip\xc8\v2.00\pic\include\pic16f876.h"
   496                           SSPADD equ 093h ;# 
   497  0093                     # 1595 "C:\Program Files (x86)\Microchip\xc8\v2.00\pic\include\pic16f876.h"
   498                           SSPSTAT equ 094h ;# 
   499  0094                     # 1764 "C:\Program Files (x86)\Microchip\xc8\v2.00\pic\include\pic16f876.h"
   500                           TXSTA equ 098h ;# 
   501  0098                     # 1845 "C:\Program Files (x86)\Microchip\xc8\v2.00\pic\include\pic16f876.h"
   502                           SPBRG equ 099h ;# 
   503  0099                     # 1852 "C:\Program Files (x86)\Microchip\xc8\v2.00\pic\include\pic16f876.h"
   504                           ADRESL equ 09Eh ;# 
   505  009E                     # 1859 "C:\Program Files (x86)\Microchip\xc8\v2.00\pic\include\pic16f876.h"
   506                           ADCON1 equ 09Fh ;# 
   507  009F                     # 1912 "C:\Program Files (x86)\Microchip\xc8\v2.00\pic\include\pic16f876.h"
   508                           EEDATA equ 010Ch ;# 
   509  010C                     # 1919 "C:\Program Files (x86)\Microchip\xc8\v2.00\pic\include\pic16f876.h"
   510                           EEADR equ 010Dh ;# 
   511  010D                     # 1926 "C:\Program Files (x86)\Microchip\xc8\v2.00\pic\include\pic16f876.h"
   512                           EEDATH equ 010Eh ;# 
   513  010E                     # 1933 "C:\Program Files (x86)\Microchip\xc8\v2.00\pic\include\pic16f876.h"
   514                           EEADRH equ 010Fh ;# 
   515  010F                     # 1940 "C:\Program Files (x86)\Microchip\xc8\v2.00\pic\include\pic16f876.h"
   516                           EECON1 equ 018Ch ;# 
   517  018C                     # 1985 "C:\Program Files (x86)\Microchip\xc8\v2.00\pic\include\pic16f876.h"
   518                           EECON2 equ 018Dh ;# 
   519  018D                     # 54 "C:\Program Files (x86)\Microchip\xc8\v2.00\pic\include\pic16f876.h"
   520                           INDF equ 00h ;# 
   521  0000                     # 61 "C:\Program Files (x86)\Microchip\xc8\v2.00\pic\include\pic16f876.h"
   522                           TMR0 equ 01h ;# 
   523  0001                     # 68 "C:\Program Files (x86)\Microchip\xc8\v2.00\pic\include\pic16f876.h"
   524                           PCL equ 02h ;# 
   525  0002                     # 75 "C:\Program Files (x86)\Microchip\xc8\v2.00\pic\include\pic16f876.h"
   526                           STATUS equ 03h ;# 
   527  0003                     # 161 "C:\Program Files (x86)\Microchip\xc8\v2.00\pic\include\pic16f876.h"
   528                           FSR equ 04h ;# 
   529  0004                     # 168 "C:\Program Files (x86)\Microchip\xc8\v2.00\pic\include\pic16f876.h"
   530                           PORTA equ 05h ;# 
   531  0005                     # 218 "C:\Program Files (x86)\Microchip\xc8\v2.00\pic\include\pic16f876.h"
   532                           PORTB equ 06h ;# 
   533  0006                     # 280 "C:\Program Files (x86)\Microchip\xc8\v2.00\pic\include\pic16f876.h"
   534                           PORTC equ 07h ;# 
   535  0007                     # 342 "C:\Program Files (x86)\Microchip\xc8\v2.00\pic\include\pic16f876.h"
   536                           PCLATH equ 0Ah ;# 
   537  000A                     # 362 "C:\Program Files (x86)\Microchip\xc8\v2.00\pic\include\pic16f876.h"
   538                           INTCON equ 0Bh ;# 
   539  000B                     # 440 "C:\Program Files (x86)\Microchip\xc8\v2.00\pic\include\pic16f876.h"
   540                           PIR1 equ 0Ch ;# 
   541  000C                     # 496 "C:\Program Files (x86)\Microchip\xc8\v2.00\pic\include\pic16f876.h"
   542                           PIR2 equ 0Dh ;# 
   543  000D                     # 529 "C:\Program Files (x86)\Microchip\xc8\v2.00\pic\include\pic16f876.h"
   544                           TMR1 equ 0Eh ;# 
   545  000E                     # 536 "C:\Program Files (x86)\Microchip\xc8\v2.00\pic\include\pic16f876.h"
   546                           TMR1L equ 0Eh ;# 
   547  000E                     # 543 "C:\Program Files (x86)\Microchip\xc8\v2.00\pic\include\pic16f876.h"
   548                           TMR1H equ 0Fh ;# 
   549  000F                     # 550 "C:\Program Files (x86)\Microchip\xc8\v2.00\pic\include\pic16f876.h"
   550                           T1CON equ 010h ;# 
   551  0010                     # 627 "C:\Program Files (x86)\Microchip\xc8\v2.00\pic\include\pic16f876.h"
   552                           TMR2 equ 011h ;# 
   553  0011                     # 634 "C:\Program Files (x86)\Microchip\xc8\v2.00\pic\include\pic16f876.h"
   554                           T2CON equ 012h ;# 
   555  0012                     # 705 "C:\Program Files (x86)\Microchip\xc8\v2.00\pic\include\pic16f876.h"
   556                           SSPBUF equ 013h ;# 
   557  0013                     # 712 "C:\Program Files (x86)\Microchip\xc8\v2.00\pic\include\pic16f876.h"
   558                           SSPCON equ 014h ;# 
   559  0014                     # 782 "C:\Program Files (x86)\Microchip\xc8\v2.00\pic\include\pic16f876.h"
   560                           CCPR1 equ 015h ;# 
   561  0015                     # 789 "C:\Program Files (x86)\Microchip\xc8\v2.00\pic\include\pic16f876.h"
   562                           CCPR1L equ 015h ;# 
   563  0015                     # 796 "C:\Program Files (x86)\Microchip\xc8\v2.00\pic\include\pic16f876.h"
   564                           CCPR1H equ 016h ;# 
   565  0016                     # 803 "C:\Program Files (x86)\Microchip\xc8\v2.00\pic\include\pic16f876.h"
   566                           CCP1CON equ 017h ;# 
   567  0017                     # 861 "C:\Program Files (x86)\Microchip\xc8\v2.00\pic\include\pic16f876.h"
   568                           RCSTA equ 018h ;# 
   569  0018                     # 956 "C:\Program Files (x86)\Microchip\xc8\v2.00\pic\include\pic16f876.h"
   570                           TXREG equ 019h ;# 
   571  0019                     # 963 "C:\Program Files (x86)\Microchip\xc8\v2.00\pic\include\pic16f876.h"
   572                           RCREG equ 01Ah ;# 
   573  001A                     # 970 "C:\Program Files (x86)\Microchip\xc8\v2.00\pic\include\pic16f876.h"
   574                           CCPR2 equ 01Bh ;# 
   575  001B                     # 977 "C:\Program Files (x86)\Microchip\xc8\v2.00\pic\include\pic16f876.h"
   576                           CCPR2L equ 01Bh ;# 
   577  001B                     # 984 "C:\Program Files (x86)\Microchip\xc8\v2.00\pic\include\pic16f876.h"
   578                           CCPR2H equ 01Ch ;# 
   579  001C                     # 991 "C:\Program Files (x86)\Microchip\xc8\v2.00\pic\include\pic16f876.h"
   580                           CCP2CON equ 01Dh ;# 
   581  001D                     # 1049 "C:\Program Files (x86)\Microchip\xc8\v2.00\pic\include\pic16f876.h"
   582                           ADRESH equ 01Eh ;# 
   583  001E                     # 1056 "C:\Program Files (x86)\Microchip\xc8\v2.00\pic\include\pic16f876.h"
   584                           ADCON0 equ 01Fh ;# 
   585  001F                     # 1152 "C:\Program Files (x86)\Microchip\xc8\v2.00\pic\include\pic16f876.h"
   586                           OPTION_REG equ 081h ;# 
   587  0081                     # 1222 "C:\Program Files (x86)\Microchip\xc8\v2.00\pic\include\pic16f876.h"
   588                           TRISA equ 085h ;# 
   589  0085                     # 1272 "C:\Program Files (x86)\Microchip\xc8\v2.00\pic\include\pic16f876.h"
   590                           TRISB equ 086h ;# 
   591  0086                     # 1334 "C:\Program Files (x86)\Microchip\xc8\v2.00\pic\include\pic16f876.h"
   592                           TRISC equ 087h ;# 
   593  0087                     # 1396 "C:\Program Files (x86)\Microchip\xc8\v2.00\pic\include\pic16f876.h"
   594                           PIE1 equ 08Ch ;# 
   595  008C                     # 1452 "C:\Program Files (x86)\Microchip\xc8\v2.00\pic\include\pic16f876.h"
   596                           PIE2 equ 08Dh ;# 
   597  008D                     # 1485 "C:\Program Files (x86)\Microchip\xc8\v2.00\pic\include\pic16f876.h"
   598                           PCON equ 08Eh ;# 
   599  008E                     # 1519 "C:\Program Files (x86)\Microchip\xc8\v2.00\pic\include\pic16f876.h"
   600                           SSPCON2 equ 091h ;# 
   601  0091                     # 1581 "C:\Program Files (x86)\Microchip\xc8\v2.00\pic\include\pic16f876.h"
   602                           PR2 equ 092h ;# 
   603  0092                     # 1588 "C:\Program Files (x86)\Microchip\xc8\v2.00\pic\include\pic16f876.h"
   604                           SSPADD equ 093h ;# 
   605  0093                     # 1595 "C:\Program Files (x86)\Microchip\xc8\v2.00\pic\include\pic16f876.h"
   606                           SSPSTAT equ 094h ;# 
   607  0094                     # 1764 "C:\Program Files (x86)\Microchip\xc8\v2.00\pic\include\pic16f876.h"
   608                           TXSTA equ 098h ;# 
   609  0098                     # 1845 "C:\Program Files (x86)\Microchip\xc8\v2.00\pic\include\pic16f876.h"
   610                           SPBRG equ 099h ;# 
   611  0099                     # 1852 "C:\Program Files (x86)\Microchip\xc8\v2.00\pic\include\pic16f876.h"
   612                           ADRESL equ 09Eh ;# 
   613  009E                     # 1859 "C:\Program Files (x86)\Microchip\xc8\v2.00\pic\include\pic16f876.h"
   614                           ADCON1 equ 09Fh ;# 
   615  009F                     # 1912 "C:\Program Files (x86)\Microchip\xc8\v2.00\pic\include\pic16f876.h"
   616                           EEDATA equ 010Ch ;# 
   617  010C                     # 1919 "C:\Program Files (x86)\Microchip\xc8\v2.00\pic\include\pic16f876.h"
   618                           EEADR equ 010Dh ;# 
   619  010D                     # 1926 "C:\Program Files (x86)\Microchip\xc8\v2.00\pic\include\pic16f876.h"
   620                           EEDATH equ 010Eh ;# 
   621  010E                     # 1933 "C:\Program Files (x86)\Microchip\xc8\v2.00\pic\include\pic16f876.h"
   622                           EEADRH equ 010Fh ;# 
   623  010F                     # 1940 "C:\Program Files (x86)\Microchip\xc8\v2.00\pic\include\pic16f876.h"
   624                           EECON1 equ 018Ch ;# 
   625  018C                     # 1985 "C:\Program Files (x86)\Microchip\xc8\v2.00\pic\include\pic16f876.h"
   626                           EECON2 equ 018Dh ;# 
   627  018D                     # 54 "C:\Program Files (x86)\Microchip\xc8\v2.00\pic\include\pic16f876.h"
   628                           INDF equ 00h ;# 
   629  0000                     # 61 "C:\Program Files (x86)\Microchip\xc8\v2.00\pic\include\pic16f876.h"
   630                           TMR0 equ 01h ;# 
   631  0001                     # 68 "C:\Program Files (x86)\Microchip\xc8\v2.00\pic\include\pic16f876.h"
   632                           PCL equ 02h ;# 
   633  0002                     # 75 "C:\Program Files (x86)\Microchip\xc8\v2.00\pic\include\pic16f876.h"
   634                           STATUS equ 03h ;# 
   635  0003                     # 161 "C:\Program Files (x86)\Microchip\xc8\v2.00\pic\include\pic16f876.h"
   636                           FSR equ 04h ;# 
   637  0004                     # 168 "C:\Program Files (x86)\Microchip\xc8\v2.00\pic\include\pic16f876.h"
   638                           PORTA equ 05h ;# 
   639  0005                     # 218 "C:\Program Files (x86)\Microchip\xc8\v2.00\pic\include\pic16f876.h"
   640                           PORTB equ 06h ;# 
   641  0006                     # 280 "C:\Program Files (x86)\Microchip\xc8\v2.00\pic\include\pic16f876.h"
   642                           PORTC equ 07h ;# 
   643  0007                     # 342 "C:\Program Files (x86)\Microchip\xc8\v2.00\pic\include\pic16f876.h"
   644                           PCLATH equ 0Ah ;# 
   645  000A                     # 362 "C:\Program Files (x86)\Microchip\xc8\v2.00\pic\include\pic16f876.h"
   646                           INTCON equ 0Bh ;# 
   647  000B                     # 440 "C:\Program Files (x86)\Microchip\xc8\v2.00\pic\include\pic16f876.h"
   648                           PIR1 equ 0Ch ;# 
   649  000C                     # 496 "C:\Program Files (x86)\Microchip\xc8\v2.00\pic\include\pic16f876.h"
   650                           PIR2 equ 0Dh ;# 
   651  000D                     # 529 "C:\Program Files (x86)\Microchip\xc8\v2.00\pic\include\pic16f876.h"
   652                           TMR1 equ 0Eh ;# 
   653  000E                     # 536 "C:\Program Files (x86)\Microchip\xc8\v2.00\pic\include\pic16f876.h"
   654                           TMR1L equ 0Eh ;# 
   655  000E                     # 543 "C:\Program Files (x86)\Microchip\xc8\v2.00\pic\include\pic16f876.h"
   656                           TMR1H equ 0Fh ;# 
   657  000F                     # 550 "C:\Program Files (x86)\Microchip\xc8\v2.00\pic\include\pic16f876.h"
   658                           T1CON equ 010h ;# 
   659  0010                     # 627 "C:\Program Files (x86)\Microchip\xc8\v2.00\pic\include\pic16f876.h"
   660                           TMR2 equ 011h ;# 
   661  0011                     # 634 "C:\Program Files (x86)\Microchip\xc8\v2.00\pic\include\pic16f876.h"
   662                           T2CON equ 012h ;# 
   663  0012                     # 705 "C:\Program Files (x86)\Microchip\xc8\v2.00\pic\include\pic16f876.h"
   664                           SSPBUF equ 013h ;# 
   665  0013                     # 712 "C:\Program Files (x86)\Microchip\xc8\v2.00\pic\include\pic16f876.h"
   666                           SSPCON equ 014h ;# 
   667  0014                     # 782 "C:\Program Files (x86)\Microchip\xc8\v2.00\pic\include\pic16f876.h"
   668                           CCPR1 equ 015h ;# 
   669  0015                     # 789 "C:\Program Files (x86)\Microchip\xc8\v2.00\pic\include\pic16f876.h"
   670                           CCPR1L equ 015h ;# 
   671  0015                     # 796 "C:\Program Files (x86)\Microchip\xc8\v2.00\pic\include\pic16f876.h"
   672                           CCPR1H equ 016h ;# 
   673  0016                     # 803 "C:\Program Files (x86)\Microchip\xc8\v2.00\pic\include\pic16f876.h"
   674                           CCP1CON equ 017h ;# 
   675  0017                     # 861 "C:\Program Files (x86)\Microchip\xc8\v2.00\pic\include\pic16f876.h"
   676                           RCSTA equ 018h ;# 
   677  0018                     # 956 "C:\Program Files (x86)\Microchip\xc8\v2.00\pic\include\pic16f876.h"
   678                           TXREG equ 019h ;# 
   679  0019                     # 963 "C:\Program Files (x86)\Microchip\xc8\v2.00\pic\include\pic16f876.h"
   680                           RCREG equ 01Ah ;# 
   681  001A                     # 970 "C:\Program Files (x86)\Microchip\xc8\v2.00\pic\include\pic16f876.h"
   682                           CCPR2 equ 01Bh ;# 
   683  001B                     # 977 "C:\Program Files (x86)\Microchip\xc8\v2.00\pic\include\pic16f876.h"
   684                           CCPR2L equ 01Bh ;# 
   685  001B                     # 984 "C:\Program Files (x86)\Microchip\xc8\v2.00\pic\include\pic16f876.h"
   686                           CCPR2H equ 01Ch ;# 
   687  001C                     # 991 "C:\Program Files (x86)\Microchip\xc8\v2.00\pic\include\pic16f876.h"
   688                           CCP2CON equ 01Dh ;# 
   689  001D                     # 1049 "C:\Program Files (x86)\Microchip\xc8\v2.00\pic\include\pic16f876.h"
   690                           ADRESH equ 01Eh ;# 
   691  001E                     # 1056 "C:\Program Files (x86)\Microchip\xc8\v2.00\pic\include\pic16f876.h"
   692                           ADCON0 equ 01Fh ;# 
   693  001F                     # 1152 "C:\Program Files (x86)\Microchip\xc8\v2.00\pic\include\pic16f876.h"
   694                           OPTION_REG equ 081h ;# 
   695  0081                     # 1222 "C:\Program Files (x86)\Microchip\xc8\v2.00\pic\include\pic16f876.h"
   696                           TRISA equ 085h ;# 
   697  0085                     # 1272 "C:\Program Files (x86)\Microchip\xc8\v2.00\pic\include\pic16f876.h"
   698                           TRISB equ 086h ;# 
   699  0086                     # 1334 "C:\Program Files (x86)\Microchip\xc8\v2.00\pic\include\pic16f876.h"
   700                           TRISC equ 087h ;# 
   701  0087                     # 1396 "C:\Program Files (x86)\Microchip\xc8\v2.00\pic\include\pic16f876.h"
   702                           PIE1 equ 08Ch ;# 
   703  008C                     # 1452 "C:\Program Files (x86)\Microchip\xc8\v2.00\pic\include\pic16f876.h"
   704                           PIE2 equ 08Dh ;# 
   705  008D                     # 1485 "C:\Program Files (x86)\Microchip\xc8\v2.00\pic\include\pic16f876.h"
   706                           PCON equ 08Eh ;# 
   707  008E                     # 1519 "C:\Program Files (x86)\Microchip\xc8\v2.00\pic\include\pic16f876.h"
   708                           SSPCON2 equ 091h ;# 
   709  0091                     # 1581 "C:\Program Files (x86)\Microchip\xc8\v2.00\pic\include\pic16f876.h"
   710                           PR2 equ 092h ;# 
   711  0092                     # 1588 "C:\Program Files (x86)\Microchip\xc8\v2.00\pic\include\pic16f876.h"
   712                           SSPADD equ 093h ;# 
   713  0093                     # 1595 "C:\Program Files (x86)\Microchip\xc8\v2.00\pic\include\pic16f876.h"
   714                           SSPSTAT equ 094h ;# 
   715  0094                     # 1764 "C:\Program Files (x86)\Microchip\xc8\v2.00\pic\include\pic16f876.h"
   716                           TXSTA equ 098h ;# 
   717  0098                     # 1845 "C:\Program Files (x86)\Microchip\xc8\v2.00\pic\include\pic16f876.h"
   718                           SPBRG equ 099h ;# 
   719  0099                     # 1852 "C:\Program Files (x86)\Microchip\xc8\v2.00\pic\include\pic16f876.h"
   720                           ADRESL equ 09Eh ;# 
   721  009E                     # 1859 "C:\Program Files (x86)\Microchip\xc8\v2.00\pic\include\pic16f876.h"
   722                           ADCON1 equ 09Fh ;# 
   723  009F                     # 1912 "C:\Program Files (x86)\Microchip\xc8\v2.00\pic\include\pic16f876.h"
   724                           EEDATA equ 010Ch ;# 
   725  010C                     # 1919 "C:\Program Files (x86)\Microchip\xc8\v2.00\pic\include\pic16f876.h"
   726                           EEADR equ 010Dh ;# 
   727  010D                     # 1926 "C:\Program Files (x86)\Microchip\xc8\v2.00\pic\include\pic16f876.h"
   728                           EEDATH equ 010Eh ;# 
   729  010E                     # 1933 "C:\Program Files (x86)\Microchip\xc8\v2.00\pic\include\pic16f876.h"
   730                           EEADRH equ 010Fh ;# 
   731  010F                     # 1940 "C:\Program Files (x86)\Microchip\xc8\v2.00\pic\include\pic16f876.h"
   732                           EECON1 equ 018Ch ;# 
   733  018C                     # 1985 "C:\Program Files (x86)\Microchip\xc8\v2.00\pic\include\pic16f876.h"
   734                           EECON2 equ 018Dh ;# 
   735  018D                     	FNCALL	_main,_Configure
   736                           	FNCALL	_main,_SetUnitConfig
   737                           	FNCALL	_main,_SetUnitLamps
   738                           	FNCALL	_SetUnitLamps,___bmul
   739                           	FNCALL	_SetUnitConfig,___bmul
   740                           	FNROOT	_main
   741                           	FNCALL	_isr,_BitUpdate
   742                           	FNCALL	_isr,_TimeUpdate
   743                           	FNCALL	_TimeUpdate,_StartTx
   744                           	FNCALL	intlevel1,_isr
   745                           	global	intlevel1
   746                           	FNROOT	intlevel1
   747                           	global	TimeUpdate@Count
   748                           	global	_SerialModeTx
   749                           	global	_DataMode
   750                           	global	_TxMode
   751                           	global	_Units
   752                           	global	_PORTAbits
   753                           _PORTAbits	set	0x5
   754  0005                     	global	_TMR1L
   755                           _TMR1L	set	0xE
   756  000E                     	global	_TMR1H
   757                           _TMR1H	set	0xF
   758  000F                     	global	_T1CONbits
   759                           _T1CONbits	set	0x10
   760  0010                     	global	_TMR0
   761                           _TMR0	set	0x1
   762  0001                     	global	_PIR1bits
   763                           _PIR1bits	set	0xC
   764  000C                     	global	_INTCONbits
   765                           _INTCONbits	set	0xB
   766  000B                     	global	_RC1
   767                           _RC1	set	0x39
   768  0039                     	global	_RA0
   769                           _RA0	set	0x28
   770  0028                     	global	_TRISAbits
   771                           _TRISAbits	set	0x85
   772  0085                     	global	_ADCON1bits
   773                           _ADCON1bits	set	0x9F
   774  009F                     	global	_PIE1
   775                           _PIE1	set	0x8C
   776  008C                     	global	_OPTION_REGbits
   777                           _OPTION_REGbits	set	0x81
   778  0081                     ; #config settings
   779                           global __CFG_FOSC$HS
   780                           __CFG_FOSC$HS equ 0x0
   781  0000                     global __CFG_WDTE$OFF
   782                           __CFG_WDTE$OFF equ 0x0
   783  0000                     global __CFG_PWRTE$OFF
   784                           __CFG_PWRTE$OFF equ 0x0
   785  0000                     global __CFG_CP$OFF
   786                           __CFG_CP$OFF equ 0x0
   787  0000                     global __CFG_BOREN$ON
   788                           __CFG_BOREN$ON equ 0x0
   789  0000                     global __CFG_LVP$OFF
   790                           __CFG_LVP$OFF equ 0x0
   791  0000                     global __CFG_CPD$OFF
   792                           __CFG_CPD$OFF equ 0x0
   793  0000                     global __CFG_WRT$ON
   794                           __CFG_WRT$ON equ 0x0
   795  0000                     	file	"C:\Users\abaker\AppData\Local\Temp\sg3s."
   796                           	line	#
   797                           psect cinit,class=CODE,delta=2
   798                           global start_initialization
   799                           start_initialization:
   800  000F                     
   801                           global __initialization
   802                           __initialization:
   803  000F                     psect	bssCOMMON,class=COMMON,space=1,noexec
   804                           global __pbssCOMMON
   805                           __pbssCOMMON:
   806  0070                     TimeUpdate@Count:
   807  0070                            ds      1
   808  0070                     
   809                           _TxBit:
   810  0071                            ds      1
   811  0071                     
   812                           _SerialModeTx:
   813  0072                            ds      1
   814  0072                     
   815                           _DataMode:
   816  0073                            ds      1
   817  0073                     
   818                           _TxMode:
   819  0074                            ds      1
   820  0074                     
   821                           psect	bssBANK0,class=BANK0,space=1,noexec
   822                           global __pbssBANK0
   823                           __pbssBANK0:
   824  0020                     _Units:
   825  0020                            ds      12
   826  0020                     
   827                           	file	"C:\Users\abaker\AppData\Local\Temp\sg3s."
   828                           	line	#
   829                           ; Clear objects allocated to COMMON
   830                           psect cinit,class=CODE,delta=2,merge=1
   831                           	clrf	((__pbssCOMMON)+0)&07Fh
   832  000F  01F0               	clrf	((__pbssCOMMON)+1)&07Fh
   833  0010  01F1               	clrf	((__pbssCOMMON)+2)&07Fh
   834  0011  01F2               	clrf	((__pbssCOMMON)+3)&07Fh
   835  0012  01F3               	clrf	((__pbssCOMMON)+4)&07Fh
   836  0013  01F4               ; Clear objects allocated to BANK0
   837                           psect cinit,class=CODE,delta=2,merge=1
   838                           	bcf	status, 5	;RP0=0, select bank0
   839  0014  1283               	bcf	status, 6	;RP1=0, select bank0
   840  0015  1303               	clrf	((__pbssBANK0)+0)&07Fh
   841  0016  01A0               	clrf	((__pbssBANK0)+1)&07Fh
   842  0017  01A1               	clrf	((__pbssBANK0)+2)&07Fh
   843  0018  01A2               	clrf	((__pbssBANK0)+3)&07Fh
   844  0019  01A3               	clrf	((__pbssBANK0)+4)&07Fh
   845  001A  01A4               	clrf	((__pbssBANK0)+5)&07Fh
   846  001B  01A5               	clrf	((__pbssBANK0)+6)&07Fh
   847  001C  01A6               	clrf	((__pbssBANK0)+7)&07Fh
   848  001D  01A7               	clrf	((__pbssBANK0)+8)&07Fh
   849  001E  01A8               	clrf	((__pbssBANK0)+9)&07Fh
   850  001F  01A9               	clrf	((__pbssBANK0)+10)&07Fh
   851  0020  01AA               	clrf	((__pbssBANK0)+11)&07Fh
   852  0021  01AB               psect cinit,class=CODE,delta=2,merge=1
   853                           global end_of_initialization,__end_of__initialization
   854                           
   855                           ;End of C runtime variable initialization code
   856                           
   857                           end_of_initialization:
   858  0022                     __end_of__initialization:
   859  0022                     clrf status
   860  0022  0183               ljmp _main	;jump to C main() function
   861  0023  120A  118A  28E5   psect	cstackCOMMON,class=COMMON,space=1,noexec
   862                           global __pcstackCOMMON
   863                           __pcstackCOMMON:
   864  0075                     ?_TimeUpdate:	; 1 bytes @ 0x0
   865  0075                     ??_TimeUpdate:	; 1 bytes @ 0x0
   866  0075                     ?_BitUpdate:	; 1 bytes @ 0x0
   867  0075                     ??_BitUpdate:	; 1 bytes @ 0x0
   868  0075                     ?_Configure:	; 1 bytes @ 0x0
   869  0075                     ?_StartTx:	; 1 bytes @ 0x0
   870  0075                     ??_StartTx:	; 1 bytes @ 0x0
   871  0075                     ?_isr:	; 1 bytes @ 0x0
   872  0075                     ?_main:	; 1 bytes @ 0x0
   873  0075                     	ds	1
   874  0075                     	global	BitUpdate@DataByte
   875                           BitUpdate@DataByte:	; 1 bytes @ 0x1
   876  0076                     	ds	1
   877  0076                     	global	BitUpdate@DataMask
   878                           BitUpdate@DataMask:	; 1 bytes @ 0x2
   879  0077                     	ds	1
   880  0077                     ??_isr:	; 1 bytes @ 0x3
   881  0078                     	ds	2
   882  0078                     psect	cstackBANK0,class=BANK0,space=1,noexec
   883                           global __pcstackBANK0
   884                           __pcstackBANK0:
   885  002C                     ??_Configure:	; 1 bytes @ 0x0
   886  002C                     ?___bmul:	; 1 bytes @ 0x0
   887  002C                     	global	___bmul@multiplicand
   888                           ___bmul@multiplicand:	; 1 bytes @ 0x0
   889  002C                     	ds	1
   890  002C                     ??___bmul:	; 1 bytes @ 0x1
   891  002D                     	ds	1
   892  002D                     	global	___bmul@product
   893                           ___bmul@product:	; 1 bytes @ 0x2
   894  002E                     	ds	1
   895  002E                     	global	___bmul@multiplier
   896                           ___bmul@multiplier:	; 1 bytes @ 0x3
   897  002F                     	ds	1
   898  002F                     ?_SetUnitConfig:	; 1 bytes @ 0x4
   899  0030                     ?_SetUnitLamps:	; 1 bytes @ 0x4
   900  0030                     	global	SetUnitConfig@Address
   901                           SetUnitConfig@Address:	; 1 bytes @ 0x4
   902  0030                     	global	SetUnitLamps@LampData
   903                           SetUnitLamps@LampData:	; 1 bytes @ 0x4
   904  0030                     	ds	1
   905  0030                     ??_SetUnitLamps:	; 1 bytes @ 0x5
   906  0031                     	global	SetUnitConfig@Lamps
   907                           SetUnitConfig@Lamps:	; 1 bytes @ 0x5
   908  0031                     	ds	1
   909  0031                     ??_SetUnitConfig:	; 1 bytes @ 0x6
   910  0032                     	ds	1
   911  0032                     	global	SetUnitLamps@Unit
   912                           SetUnitLamps@Unit:	; 1 bytes @ 0x7
   913  0033                     	ds	1
   914  0033                     	global	SetUnitConfig@Unit
   915                           SetUnitConfig@Unit:	; 1 bytes @ 0x8
   916  0034                     	ds	1
   917  0034                     ??_main:	; 1 bytes @ 0x9
   918  0035                     	ds	2
   919  0035                     ;!
   920                           ;!Data Sizes:
   921                           ;!    Strings     0
   922                           ;!    Constant    0
   923                           ;!    Data        0
   924                           ;!    BSS         17
   925                           ;!    Persistent  0
   926                           ;!    Stack       0
   927                           ;!
   928                           ;!Auto Spaces:
   929                           ;!    Space          Size  Autos    Used
   930                           ;!    COMMON           14      5      10
   931                           ;!    BANK0            80     11      23
   932                           ;!    BANK1            80      0       0
   933                           ;!    BANK3            96      0       0
   934                           ;!    BANK2            96      0       0
   935                           
   936                           ;!
   937                           ;!Pointer List with Targets:
   938                           ;!
   939                           ;!    None.
   940                           
   941                           
   942                           ;!
   943                           ;!Critical Paths under _main in COMMON
   944                           ;!
   945                           ;!    None.
   946                           ;!
   947                           ;!Critical Paths under _isr in COMMON
   948                           ;!
   949                           ;!    _isr->_BitUpdate
   950                           ;!
   951                           ;!Critical Paths under _main in BANK0
   952                           ;!
   953                           ;!    _main->_SetUnitConfig
   954                           ;!    _SetUnitLamps->___bmul
   955                           ;!    _SetUnitConfig->___bmul
   956                           ;!
   957                           ;!Critical Paths under _isr in BANK0
   958                           ;!
   959                           ;!    None.
   960                           ;!
   961                           ;!Critical Paths under _main in BANK1
   962                           ;!
   963                           ;!    None.
   964                           ;!
   965                           ;!Critical Paths under _isr in BANK1
   966                           ;!
   967                           ;!    None.
   968                           ;!
   969                           ;!Critical Paths under _main in BANK3
   970                           ;!
   971                           ;!    None.
   972                           ;!
   973                           ;!Critical Paths under _isr in BANK3
   974                           ;!
   975                           ;!    None.
   976                           ;!
   977                           ;!Critical Paths under _main in BANK2
   978                           ;!
   979                           ;!    None.
   980                           ;!
   981                           ;!Critical Paths under _isr in BANK2
   982                           ;!
   983                           ;!    None.
   984                           
   985 ;;
   986 ;;Main: autosize = 0, tempsize = 2, incstack = 0, save=0
   987 ;;
   988                           
   989                           ;!
   990                           ;!Call Graph Tables:
   991                           ;!
   992                           ;! ---------------------------------------------------------------------------------
   993                           ;! (Depth) Function   	        Calls       Base Space   Used Autos Params    Refs
   994                           ;! ---------------------------------------------------------------------------------
   995                           ;! (0) _main                                                 2     2      0    1748
   996                           ;!                                              9 BANK0      2     2      0
   997                           ;!                          _Configure
   998                           ;!                      _SetUnitConfig
   999                           ;!                       _SetUnitLamps
  1000                           ;! ---------------------------------------------------------------------------------
  1001                           ;! (1) _SetUnitLamps                                         4     3      1     663
  1002                           ;!                                              4 BANK0      4     3      1
  1003                           ;!                             ___bmul
  1004                           ;! ---------------------------------------------------------------------------------
  1005                           ;! (1) _SetUnitConfig                                        5     3      2    1085
  1006                           ;!                                              4 BANK0      5     3      2
  1007                           ;!                             ___bmul
  1008                           ;! ---------------------------------------------------------------------------------
  1009                           ;! (2) ___bmul                                               4     3      1     241
  1010                           ;!                                              0 BANK0      4     3      1
  1011                           ;! ---------------------------------------------------------------------------------
  1012                           ;! (1) _Configure                                            0     0      0       0
  1013                           ;! ---------------------------------------------------------------------------------
  1014                           ;! Estimated maximum stack depth 2
  1015                           ;! ---------------------------------------------------------------------------------
  1016                           ;! (Depth) Function   	        Calls       Base Space   Used Autos Params    Refs
  1017                           ;! ---------------------------------------------------------------------------------
  1018                           ;! (3) _isr                                                  2     2      0      60
  1019                           ;!                                              3 COMMON     2     2      0
  1020                           ;!                          _BitUpdate
  1021                           ;!                         _TimeUpdate
  1022                           ;! ---------------------------------------------------------------------------------
  1023                           ;! (4) _TimeUpdate                                           1     1      0       0
  1024                           ;!                                              0 COMMON     1     1      0
  1025                           ;!                            _StartTx
  1026                           ;! ---------------------------------------------------------------------------------
  1027                           ;! (5) _StartTx                                              0     0      0       0
  1028                           ;! ---------------------------------------------------------------------------------
  1029                           ;! (4) _BitUpdate                                            3     3      0      60
  1030                           ;!                                              0 COMMON     3     3      0
  1031                           ;! ---------------------------------------------------------------------------------
  1032                           ;! Estimated maximum stack depth 5
  1033                           ;! ---------------------------------------------------------------------------------
  1034                           ;!
  1035                           ;! Call Graph Graphs:
  1036                           ;!
  1037                           ;! _main (ROOT)
  1038                           ;!   _Configure
  1039                           ;!   _SetUnitConfig
  1040                           ;!     ___bmul
  1041                           ;!   _SetUnitLamps
  1042                           ;!     ___bmul
  1043                           ;!
  1044                           ;! _isr (ROOT)
  1045                           ;!   _BitUpdate
  1046                           ;!   _TimeUpdate
  1047                           ;!     _StartTx
  1048                           ;!
  1049                           
  1050                           ;! Address spaces:
  1051                           
  1052                           ;!Name               Size   Autos  Total    Cost      Usage
  1053                           ;!BITCOMMON            E      0       0       0        0.0%
  1054                           ;!EEDATA             100      0       0       0        0.0%
  1055                           ;!NULL                 0      0       0       0        0.0%
  1056                           ;!CODE                 0      0       0       0        0.0%
  1057                           ;!COMMON               E      5       A       1       71.4%
  1058                           ;!BITSFR0              0      0       0       1        0.0%
  1059                           ;!SFR0                 0      0       0       1        0.0%
  1060                           ;!BITSFR1              0      0       0       2        0.0%
  1061                           ;!SFR1                 0      0       0       2        0.0%
  1062                           ;!STACK                0      0       0       2        0.0%
  1063                           ;!ABS                  0      0      21       3        0.0%
  1064                           ;!BITBANK0            50      0       0       4        0.0%
  1065                           ;!BITSFR3              0      0       0       4        0.0%
  1066                           ;!SFR3                 0      0       0       4        0.0%
  1067                           ;!BANK0               50      B      17       5       28.8%
  1068                           ;!BITSFR2              0      0       0       5        0.0%
  1069                           ;!SFR2                 0      0       0       5        0.0%
  1070                           ;!BITBANK1            50      0       0       6        0.0%
  1071                           ;!BANK1               50      0       0       7        0.0%
  1072                           ;!BITBANK3            60      0       0       8        0.0%
  1073                           ;!BANK3               60      0       0       9        0.0%
  1074                           ;!BITBANK2            60      0       0      10        0.0%
  1075                           ;!BANK2               60      0       0      11        0.0%
  1076                           ;!DATA                 0      0      21      12        0.0%
  1077                           
  1078                           	global	_main
  1079                           
  1080 ;; *************** function _main *****************
  1081 ;; Defined at:
  1082 ;;		line 22 in file "main.c"
  1083 ;; Parameters:    Size  Location     Type
  1084 ;;		None
  1085 ;; Auto vars:     Size  Location     Type
  1086 ;;		None
  1087 ;; Return value:  Size  Location     Type
  1088 ;;                  1    wreg      void 
  1089 ;; Registers used:
  1090 ;;		wreg, fsr0l, fsr0h, status,2, status,0, pclath, cstack
  1091 ;; Tracked objects:
  1092 ;;		On entry : B00/0
  1093 ;;		On exit  : 0/0
  1094 ;;		Unchanged: 0/0
  1095 ;; Data sizes:     COMMON   BANK0   BANK1   BANK3   BANK2
  1096 ;;      Params:         0       0       0       0       0
  1097 ;;      Locals:         0       0       0       0       0
  1098 ;;      Temps:          0       2       0       0       0
  1099 ;;      Totals:         0       2       0       0       0
  1100 ;;Total ram usage:        2 bytes
  1101 ;; Hardware stack levels required when called:    5
  1102 ;; This function calls:
  1103 ;;		_Configure
  1104 ;;		_SetUnitConfig
  1105 ;;		_SetUnitLamps
  1106 ;; This function is called by:
  1107 ;;		Startup code after reset
  1108 ;; This function uses a non-reentrant model
  1109 ;;
  1110                           psect	maintext,global,class=CODE,delta=2,split=1,group=0
  1111                           	file	"main.c"
  1112                           	line	22
  1113                           global __pmaintext
  1114                           __pmaintext:	;psect for function _main
  1115  00E5                     psect	maintext
  1116                           	file	"main.c"
  1117                           	line	22
  1118                           	global	__size_of_main
  1119                           	__size_of_main	equ	__end_of_main-_main
  1120  0075                     	
  1121                           _main:	
  1122  00E5                     ;incstack = 0
  1123                           	opt	stack 3
  1124                           ; Regs used in _main: [wreg-fsr0h+status,2+status,0+pclath+cstack]
  1125                           	line	25
  1126                           	
  1127                           l913:	
  1128  00E5                     ;main.c: 25:     Configure();
  1129                           	fcall	_Configure
  1130  00E5  120A  118A  2185  120A  118A  	line	27
  1131                           	
  1132                           l915:	
  1133  00EA                     ;main.c: 27:     SetUnitConfig( 0, 0, 8);
  1134                           	bcf	status, 5	;RP0=0, select bank0
  1135  00EA  1283               	bcf	status, 6	;RP1=0, select bank0
  1136  00EB  1303               	clrf	(SetUnitConfig@Address)
  1137  00EC  01B0               	movlw	low(08h)
  1138  00ED  3008               	movwf	(??_main+0)+0
  1139  00EE  00B5               	movf	(??_main+0)+0,w
  1140  00EF  0835               	movwf	(SetUnitConfig@Lamps)
  1141  00F0  00B1               	movlw	low(0)
  1142  00F1  3000               	fcall	_SetUnitConfig
  1143  00F2  120A  118A  215A  120A  118A  	line	28
  1144                           	
  1145                           l917:	
  1146  00F7                     ;main.c: 28:     SetUnitLamps( 0,0x55);
  1147                           	movlw	low(055h)
  1148  00F7  3055               	bcf	status, 5	;RP0=0, select bank0
  1149  00F8  1283               	bcf	status, 6	;RP1=0, select bank0
  1150  00F9  1303               	movwf	(??_main+0)+0
  1151  00FA  00B5               	movf	(??_main+0)+0,w
  1152  00FB  0835               	movwf	(SetUnitLamps@LampData)
  1153  00FC  00B0               	movlw	low(0)
  1154  00FD  3000               	fcall	_SetUnitLamps
  1155  00FE  120A  118A  21E5  120A  118A  	line	30
  1156                           	
  1157                           l919:	
  1158  0103                     ;main.c: 30:     SetUnitConfig( 1, 1, 8);
  1159                           	bcf	status, 5	;RP0=0, select bank0
  1160  0103  1283               	bcf	status, 6	;RP1=0, select bank0
  1161  0104  1303               	clrf	(SetUnitConfig@Address)
  1162  0105  01B0               	incf	(SetUnitConfig@Address),f
  1163  0106  0AB0               	movlw	low(08h)
  1164  0107  3008               	movwf	(??_main+0)+0
  1165  0108  00B5               	movf	(??_main+0)+0,w
  1166  0109  0835               	movwf	(SetUnitConfig@Lamps)
  1167  010A  00B1               	movlw	low(01h)
  1168  010B  3001               	fcall	_SetUnitConfig
  1169  010C  120A  118A  215A  120A  118A  	line	31
  1170                           	
  1171                           l921:	
  1172  0111                     ;main.c: 31:     SetUnitLamps( 0, 0xAA);
  1173                           	movlw	low(0AAh)
  1174  0111  30AA               	bcf	status, 5	;RP0=0, select bank0
  1175  0112  1283               	bcf	status, 6	;RP1=0, select bank0
  1176  0113  1303               	movwf	(??_main+0)+0
  1177  0114  00B5               	movf	(??_main+0)+0,w
  1178  0115  0835               	movwf	(SetUnitLamps@LampData)
  1179  0116  00B0               	movlw	low(0)
  1180  0117  3000               	fcall	_SetUnitLamps
  1181  0118  120A  118A  21E5  120A  118A  	line	33
  1182                           	
  1183                           l923:	
  1184  011D                     ;main.c: 33:     SetUnitConfig( 2, 3, 8);
  1185                           	movlw	low(03h)
  1186  011D  3003               	bcf	status, 5	;RP0=0, select bank0
  1187  011E  1283               	bcf	status, 6	;RP1=0, select bank0
  1188  011F  1303               	movwf	(??_main+0)+0
  1189  0120  00B5               	movf	(??_main+0)+0,w
  1190  0121  0835               	movwf	(SetUnitConfig@Address)
  1191  0122  00B0               	movlw	low(08h)
  1192  0123  3008               	movwf	(??_main+1)+0
  1193  0124  00B6               	movf	(??_main+1)+0,w
  1194  0125  0836               	movwf	(SetUnitConfig@Lamps)
  1195  0126  00B1               	movlw	low(02h)
  1196  0127  3002               	fcall	_SetUnitConfig
  1197  0128  120A  118A  215A  120A  118A  	line	34
  1198                           	
  1199                           l925:	
  1200  012D                     ;main.c: 34:     SetUnitLamps( 0, 0x15);
  1201                           	movlw	low(015h)
  1202  012D  3015               	bcf	status, 5	;RP0=0, select bank0
  1203  012E  1283               	bcf	status, 6	;RP1=0, select bank0
  1204  012F  1303               	movwf	(??_main+0)+0
  1205  0130  00B5               	movf	(??_main+0)+0,w
  1206  0131  0835               	movwf	(SetUnitLamps@LampData)
  1207  0132  00B0               	movlw	low(0)
  1208  0133  3000               	fcall	_SetUnitLamps
  1209  0134  120A  118A  21E5  120A  118A  	line	36
  1210                           	
  1211                           l927:	
  1212  0139                     ;main.c: 36:     SetUnitConfig( 3, 3, 8);
  1213                           	movlw	low(03h)
  1214  0139  3003               	bcf	status, 5	;RP0=0, select bank0
  1215  013A  1283               	bcf	status, 6	;RP1=0, select bank0
  1216  013B  1303               	movwf	(??_main+0)+0
  1217  013C  00B5               	movf	(??_main+0)+0,w
  1218  013D  0835               	movwf	(SetUnitConfig@Address)
  1219  013E  00B0               	movlw	low(08h)
  1220  013F  3008               	movwf	(??_main+1)+0
  1221  0140  00B6               	movf	(??_main+1)+0,w
  1222  0141  0836               	movwf	(SetUnitConfig@Lamps)
  1223  0142  00B1               	movlw	low(03h)
  1224  0143  3003               	fcall	_SetUnitConfig
  1225  0144  120A  118A  215A  120A  118A  	line	37
  1226                           	
  1227                           l929:	
  1228  0149                     ;main.c: 37:     SetUnitLamps( 0, 0x4D);
  1229                           	movlw	low(04Dh)
  1230  0149  304D               	bcf	status, 5	;RP0=0, select bank0
  1231  014A  1283               	bcf	status, 6	;RP1=0, select bank0
  1232  014B  1303               	movwf	(??_main+0)+0
  1233  014C  00B5               	movf	(??_main+0)+0,w
  1234  014D  0835               	movwf	(SetUnitLamps@LampData)
  1235  014E  00B0               	movlw	low(0)
  1236  014F  3000               	fcall	_SetUnitLamps
  1237  0150  120A  118A  21E5  120A  118A  	line	41
  1238                           	
  1239                           l931:	
  1240  0155                     ;main.c: 41:     INTCONbits. GIE = 1;
  1241                           	bsf	(11),7	;volatile
  1242  0155  178B               	line	44
  1243                           ;main.c: 44:     while(1)
  1244                           	
  1245                           l28:	
  1246  0156                     	line	49
  1247                           ;main.c: 45:     {;main.c: 49:     }
  1248                           	
  1249                           l29:	
  1250  0156                     	goto	l28
  1251  0156  2956               	
  1252                           l30:	
  1253  0157                     	line	51
  1254                           	
  1255                           l31:	
  1256  0157                     	global	start
  1257                           	ljmp	start
  1258  0157  120A  118A  280C   	opt stack 0
  1259                           GLOBAL	__end_of_main
  1260                           	__end_of_main:
  1261  015A                     	signat	_main,89
  1262                           	global	_SetUnitLamps
  1263                           
  1264 ;; *************** function _SetUnitLamps *****************
  1265 ;; Defined at:
  1266 ;;		line 163 in file "user.c"
  1267 ;; Parameters:    Size  Location     Type
  1268 ;;  Unit            1    wreg     unsigned char 
  1269 ;;  LampData        1    4[BANK0 ] unsigned char 
  1270 ;; Auto vars:     Size  Location     Type
  1271 ;;  Unit            1    7[BANK0 ] unsigned char 
  1272 ;; Return value:  Size  Location     Type
  1273 ;;                  1    wreg      void 
  1274 ;; Registers used:
  1275 ;;		wreg, fsr0l, fsr0h, status,2, status,0, pclath, cstack
  1276 ;; Tracked objects:
  1277 ;;		On entry : 0/0
  1278 ;;		On exit  : 0/0
  1279 ;;		Unchanged: 0/0
  1280 ;; Data sizes:     COMMON   BANK0   BANK1   BANK3   BANK2
  1281 ;;      Params:         0       1       0       0       0
  1282 ;;      Locals:         0       1       0       0       0
  1283 ;;      Temps:          0       2       0       0       0
  1284 ;;      Totals:         0       4       0       0       0
  1285 ;;Total ram usage:        4 bytes
  1286 ;; Hardware stack levels used:    1
  1287 ;; Hardware stack levels required when called:    4
  1288 ;; This function calls:
  1289 ;;		___bmul
  1290 ;; This function is called by:
  1291 ;;		_main
  1292 ;; This function uses a non-reentrant model
  1293 ;;
  1294                           psect	text1,local,class=CODE,delta=2,merge=1,group=0
  1295                           	file	"user.c"
  1296                           	line	163
  1297                           global __ptext1
  1298                           __ptext1:	;psect for function _SetUnitLamps
  1299  01E5                     psect	text1
  1300                           	file	"user.c"
  1301                           	line	163
  1302                           	global	__size_of_SetUnitLamps
  1303                           	__size_of_SetUnitLamps	equ	__end_of_SetUnitLamps-_SetUnitLamps
  1304  0018                     	
  1305                           _SetUnitLamps:	
  1306  01E5                     ;incstack = 0
  1307                           	opt	stack 3
  1308                           ; Regs used in _SetUnitLamps: [wreg-fsr0h+status,2+status,0+pclath+cstack]
  1309                           ;SetUnitLamps@Unit stored from wreg
  1310                           	bcf	status, 5	;RP0=0, select bank0
  1311  01E5  1283               	bcf	status, 6	;RP1=0, select bank0
  1312  01E6  1303               	movwf	(SetUnitLamps@Unit)
  1313  01E7  00B3               	line	165
  1314                           	
  1315                           l911:	
  1316  01E8                     ;user.c: 163: void SetUnitLamps(uint8_t Unit, uint8_t LampData );user.c: 164: {;user.c: 
                                 165:     Units[Unit].LampData = LampData;
  1317                           	movf	(SetUnitLamps@LampData),w
  1318  01E8  0830               	movwf	(??_SetUnitLamps+0)+0
  1319  01E9  00B1               	movlw	low(03h)
  1320  01EA  3003               	movwf	(??_SetUnitLamps+1)+0
  1321  01EB  00B2               	movf	(??_SetUnitLamps+1)+0,w
  1322  01EC  0832               	movwf	(___bmul@multiplicand)
  1323  01ED  00AC               	movf	(SetUnitLamps@Unit),w
  1324  01EE  0833               	fcall	___bmul
  1325  01EF  120A  118A  21CA  120A  118A  	addlw	02h
  1326  01F4  3E02               	addlw	low(_Units|((0x0)<<8))&0ffh
  1327  01F5  3E20               	movwf	fsr0
  1328  01F6  0084               	bcf	status, 5	;RP0=0, select bank0
  1329  01F7  1283               	bcf	status, 6	;RP1=0, select bank0
  1330  01F8  1303               	movf	(??_SetUnitLamps+0)+0,w
  1331  01F9  0831               	bcf	status, 7	;select IRP bank0
  1332  01FA  1383               	movwf	indf
  1333  01FB  0080               	line	166
  1334                           	
  1335                           l109:	
  1336  01FC                     	return
  1337  01FC  0008               	opt stack 0
  1338                           GLOBAL	__end_of_SetUnitLamps
  1339                           	__end_of_SetUnitLamps:
  1340  01FD                     	signat	_SetUnitLamps,8313
  1341                           	global	_SetUnitConfig
  1342                           
  1343 ;; *************** function _SetUnitConfig *****************
  1344 ;; Defined at:
  1345 ;;		line 157 in file "user.c"
  1346 ;; Parameters:    Size  Location     Type
  1347 ;;  Unit            1    wreg     unsigned char 
  1348 ;;  Address         1    4[BANK0 ] unsigned char 
  1349 ;;  Lamps           1    5[BANK0 ] unsigned char 
  1350 ;; Auto vars:     Size  Location     Type
  1351 ;;  Unit            1    8[BANK0 ] unsigned char 
  1352 ;; Return value:  Size  Location     Type
  1353 ;;                  1    wreg      void 
  1354 ;; Registers used:
  1355 ;;		wreg, fsr0l, fsr0h, status,2, status,0, pclath, cstack
  1356 ;; Tracked objects:
  1357 ;;		On entry : 0/0
  1358 ;;		On exit  : 0/0
  1359 ;;		Unchanged: 0/0
  1360 ;; Data sizes:     COMMON   BANK0   BANK1   BANK3   BANK2
  1361 ;;      Params:         0       2       0       0       0
  1362 ;;      Locals:         0       1       0       0       0
  1363 ;;      Temps:          0       2       0       0       0
  1364 ;;      Totals:         0       5       0       0       0
  1365 ;;Total ram usage:        5 bytes
  1366 ;; Hardware stack levels used:    1
  1367 ;; Hardware stack levels required when called:    4
  1368 ;; This function calls:
  1369 ;;		___bmul
  1370 ;; This function is called by:
  1371 ;;		_main
  1372 ;; This function uses a non-reentrant model
  1373 ;;
  1374                           psect	text2,local,class=CODE,delta=2,merge=1,group=0
  1375                           	line	157
  1376                           global __ptext2
  1377                           __ptext2:	;psect for function _SetUnitConfig
  1378  015A                     psect	text2
  1379                           	file	"user.c"
  1380                           	line	157
  1381                           	global	__size_of_SetUnitConfig
  1382                           	__size_of_SetUnitConfig	equ	__end_of_SetUnitConfig-_SetUnitConfig
  1383  002B                     	
  1384                           _SetUnitConfig:	
  1385  015A                     ;incstack = 0
  1386                           	opt	stack 3
  1387                           ; Regs used in _SetUnitConfig: [wreg-fsr0h+status,2+status,0+pclath+cstack]
  1388                           ;SetUnitConfig@Unit stored from wreg
  1389                           	bcf	status, 5	;RP0=0, select bank0
  1390  015A  1283               	bcf	status, 6	;RP1=0, select bank0
  1391  015B  1303               	movwf	(SetUnitConfig@Unit)
  1392  015C  00B4               	line	159
  1393                           	
  1394                           l909:	
  1395  015D                     ;user.c: 157: void SetUnitConfig(uint8_t Unit, uint8_t Address, uint8_t Lamps );user.c: 
                                 158: {;user.c: 159:     Units[Unit].Address = Address;
  1396                           	movf	(SetUnitConfig@Address),w
  1397  015D  0830               	movwf	(??_SetUnitConfig+0)+0
  1398  015E  00B2               	movlw	low(03h)
  1399  015F  3003               	movwf	(??_SetUnitConfig+1)+0
  1400  0160  00B3               	movf	(??_SetUnitConfig+1)+0,w
  1401  0161  0833               	movwf	(___bmul@multiplicand)
  1402  0162  00AC               	movf	(SetUnitConfig@Unit),w
  1403  0163  0834               	fcall	___bmul
  1404  0164  120A  118A  21CA  120A  118A  	addlw	low(_Units|((0x0)<<8))&0ffh
  1405  0169  3E20               	movwf	fsr0
  1406  016A  0084               	bcf	status, 5	;RP0=0, select bank0
  1407  016B  1283               	bcf	status, 6	;RP1=0, select bank0
  1408  016C  1303               	movf	(??_SetUnitConfig+0)+0,w
  1409  016D  0832               	bcf	status, 7	;select IRP bank0
  1410  016E  1383               	movwf	indf
  1411  016F  0080               	line	160
  1412                           ;user.c: 160:     Units[Unit].Lamps = Lamps;
  1413                           	movf	(SetUnitConfig@Lamps),w
  1414  0170  0831               	movwf	(??_SetUnitConfig+0)+0
  1415  0171  00B2               	movlw	low(03h)
  1416  0172  3003               	movwf	(??_SetUnitConfig+1)+0
  1417  0173  00B3               	movf	(??_SetUnitConfig+1)+0,w
  1418  0174  0833               	movwf	(___bmul@multiplicand)
  1419  0175  00AC               	movf	(SetUnitConfig@Unit),w
  1420  0176  0834               	fcall	___bmul
  1421  0177  120A  118A  21CA  120A  118A  	addlw	01h
  1422  017C  3E01               	addlw	low(_Units|((0x0)<<8))&0ffh
  1423  017D  3E20               	movwf	fsr0
  1424  017E  0084               	bcf	status, 5	;RP0=0, select bank0
  1425  017F  1283               	bcf	status, 6	;RP1=0, select bank0
  1426  0180  1303               	movf	(??_SetUnitConfig+0)+0,w
  1427  0181  0832               	bcf	status, 7	;select IRP bank0
  1428  0182  1383               	movwf	indf
  1429  0183  0080               	line	161
  1430                           	
  1431                           l106:	
  1432  0184                     	return
  1433  0184  0008               	opt stack 0
  1434                           GLOBAL	__end_of_SetUnitConfig
  1435                           	__end_of_SetUnitConfig:
  1436  0185                     	signat	_SetUnitConfig,12409
  1437                           	global	___bmul
  1438                           
  1439 ;; *************** function ___bmul *****************
  1440 ;; Defined at:
  1441 ;;		line 4 in file "C:\Program Files (x86)\Microchip\xc8\v2.00\pic\sources\c90\common\Umul8.c"
  1442 ;; Parameters:    Size  Location     Type
  1443 ;;  multiplier      1    wreg     unsigned char 
  1444 ;;  multiplicand    1    0[BANK0 ] unsigned char 
  1445 ;; Auto vars:     Size  Location     Type
  1446 ;;  multiplier      1    3[BANK0 ] unsigned char 
  1447 ;;  product         1    2[BANK0 ] unsigned char 
  1448 ;; Return value:  Size  Location     Type
  1449 ;;                  1    wreg      unsigned char 
  1450 ;; Registers used:
  1451 ;;		wreg, status,2, status,0
  1452 ;; Tracked objects:
  1453 ;;		On entry : 0/0
  1454 ;;		On exit  : 0/0
  1455 ;;		Unchanged: 0/0
  1456 ;; Data sizes:     COMMON   BANK0   BANK1   BANK3   BANK2
  1457 ;;      Params:         0       1       0       0       0
  1458 ;;      Locals:         0       2       0       0       0
  1459 ;;      Temps:          0       1       0       0       0
  1460 ;;      Totals:         0       4       0       0       0
  1461 ;;Total ram usage:        4 bytes
  1462 ;; Hardware stack levels used:    1
  1463 ;; Hardware stack levels required when called:    3
  1464 ;; This function calls:
  1465 ;;		Nothing
  1466 ;; This function is called by:
  1467 ;;		_SetUnitConfig
  1468 ;;		_SetUnitLamps
  1469 ;; This function uses a non-reentrant model
  1470 ;;
  1471                           psect	text3,local,class=CODE,delta=2,merge=1,group=1
  1472                           	file	"C:\Program Files (x86)\Microchip\xc8\v2.00\pic\sources\c90\common\Umul8.c"
  1473                           	line	4
  1474                           global __ptext3
  1475                           __ptext3:	;psect for function ___bmul
  1476  01CA                     psect	text3
  1477                           	file	"C:\Program Files (x86)\Microchip\xc8\v2.00\pic\sources\c90\common\Umul8.c"
  1478                           	line	4
  1479                           	global	__size_of___bmul
  1480                           	__size_of___bmul	equ	__end_of___bmul-___bmul
  1481  001B                     	
  1482                           ___bmul:	
  1483  01CA                     ;incstack = 0
  1484                           	opt	stack 3
  1485                           ; Regs used in ___bmul: [wreg+status,2+status,0]
  1486                           ;___bmul@multiplier stored from wreg
  1487                           	bcf	status, 5	;RP0=0, select bank0
  1488  01CA  1283               	bcf	status, 6	;RP1=0, select bank0
  1489  01CB  1303               	movwf	(___bmul@multiplier)
  1490  01CC  00AF               	line	6
  1491                           	
  1492                           l871:	
  1493  01CD                     	clrf	(___bmul@product)
  1494  01CD  01AE               	goto	l873
  1495  01CE  29CF               	line	42
  1496                           	
  1497                           l221:	
  1498  01CF                     	line	43
  1499                           	
  1500                           l873:	
  1501  01CF                     	btfss	(___bmul@multiplier),(0)&7
  1502  01CF  1C2F               	goto	u221
  1503  01D0  29D2               	goto	u220
  1504  01D1  29D3               u221:
  1505  01D2                     	goto	l877
  1506  01D2  29D8               u220:
  1507  01D3                     	line	44
  1508                           	
  1509                           l875:	
  1510  01D3                     	movf	(___bmul@multiplicand),w
  1511  01D3  082C               	movwf	(??___bmul+0)+0
  1512  01D4  00AD               	movf	(??___bmul+0)+0,w
  1513  01D5  082D               	addwf	(___bmul@product),f
  1514  01D6  07AE               	goto	l877
  1515  01D7  29D8               	
  1516                           l222:	
  1517  01D8                     	line	45
  1518                           	
  1519                           l877:	
  1520  01D8                     	clrc
  1521  01D8  1003               	rlf	(___bmul@multiplicand),f
  1522  01D9  0DAC               
  1523                           	line	46
  1524                           	
  1525                           l879:	
  1526  01DA                     	clrc
  1527  01DA  1003               	rrf	(___bmul@multiplier),f
  1528  01DB  0CAF               
  1529                           	line	47
  1530                           	movf	((___bmul@multiplier)),w
  1531  01DC  082F               	btfss	status,2
  1532  01DD  1D03               	goto	u231
  1533  01DE  29E0               	goto	u230
  1534  01DF  29E1               u231:
  1535  01E0                     	goto	l873
  1536  01E0  29CF               u230:
  1537  01E1                     	goto	l881
  1538  01E1  29E2               	
  1539                           l223:	
  1540  01E2                     	line	50
  1541                           	
  1542                           l881:	
  1543  01E2                     	movf	(___bmul@product),w
  1544  01E2  082E               	goto	l224
  1545  01E3  29E4               	
  1546                           l883:	
  1547  01E4                     	line	51
  1548                           	
  1549                           l224:	
  1550  01E4                     	return
  1551  01E4  0008               	opt stack 0
  1552                           GLOBAL	__end_of___bmul
  1553                           	__end_of___bmul:
  1554  01E5                     	signat	___bmul,8313
  1555                           	global	_Configure
  1556                           
  1557 ;; *************** function _Configure *****************
  1558 ;; Defined at:
  1559 ;;		line 12 in file "system.c"
  1560 ;; Parameters:    Size  Location     Type
  1561 ;;		None
  1562 ;; Auto vars:     Size  Location     Type
  1563 ;;		None
  1564 ;; Return value:  Size  Location     Type
  1565 ;;                  1    wreg      void 
  1566 ;; Registers used:
  1567 ;;		wreg, status,2, status,0
  1568 ;; Tracked objects:
  1569 ;;		On entry : 0/0
  1570 ;;		On exit  : 0/0
  1571 ;;		Unchanged: 0/0
  1572 ;; Data sizes:     COMMON   BANK0   BANK1   BANK3   BANK2
  1573 ;;      Params:         0       0       0       0       0
  1574 ;;      Locals:         0       0       0       0       0
  1575 ;;      Temps:          0       0       0       0       0
  1576 ;;      Totals:         0       0       0       0       0
  1577 ;;Total ram usage:        0 bytes
  1578 ;; Hardware stack levels used:    1
  1579 ;; Hardware stack levels required when called:    3
  1580 ;; This function calls:
  1581 ;;		Nothing
  1582 ;; This function is called by:
  1583 ;;		_main
  1584 ;; This function uses a non-reentrant model
  1585 ;;
  1586                           psect	text4,local,class=CODE,delta=2,merge=1,group=0
  1587                           	file	"system.c"
  1588                           	line	12
  1589                           global __ptext4
  1590                           __ptext4:	;psect for function _Configure
  1591  0185                     psect	text4
  1592                           	file	"system.c"
  1593                           	line	12
  1594                           	global	__size_of_Configure
  1595                           	__size_of_Configure	equ	__end_of_Configure-_Configure
  1596  0024                     	
  1597                           _Configure:	
  1598  0185                     ;incstack = 0
  1599                           	opt	stack 4
  1600                           ; Regs used in _Configure: [wreg+status,2+status,0]
  1601                           	line	16
  1602                           	
  1603                           l885:	
  1604  0185                     ;system.c: 16:     OPTION_REGbits.T0CS = 0;
  1605                           	bsf	status, 5	;RP0=1, select bank1
  1606  0185  1683               	bcf	status, 6	;RP1=0, select bank1
  1607  0186  1303               	bcf	(129)^080h,5	;volatile
  1608  0187  1281               	line	17
  1609                           ;system.c: 17:     OPTION_REGbits.PSA = 0;
  1610                           	bcf	(129)^080h,3	;volatile
  1611  0188  1181               	line	18
  1612                           	
  1613                           l887:	
  1614  0189                     ;system.c: 18:     OPTION_REGbits.PS = 7;
  1615                           	movlw	(07h & ((1<<3)-1))<<0
  1616  0189  3007               	iorwf	(129)^080h,f	;volatile
  1617  018A  0481               	line	19
  1618                           	
  1619                           l889:	
  1620  018B                     ;system.c: 19:     TMR0 = 195;
  1621                           	movlw	low(0C3h)
  1622  018B  30C3               	bcf	status, 5	;RP0=0, select bank0
  1623  018C  1283               	bcf	status, 6	;RP1=0, select bank0
  1624  018D  1303               	movwf	(1)	;volatile
  1625  018E  0081               	line	20
  1626                           	
  1627                           l891:	
  1628  018F                     ;system.c: 20:     INTCONbits.T0IE = 1;
  1629                           	bsf	(11),5	;volatile
  1630  018F  168B               	line	24
  1631                           	
  1632                           l893:	
  1633  0190                     ;system.c: 24:     T1CONbits.TMR1CS = 0;
  1634                           	bcf	(16),1	;volatile
  1635  0190  1090               	line	25
  1636                           	
  1637                           l895:	
  1638  0191                     ;system.c: 25:     T1CONbits.T1CKPS = 0;
  1639                           	movlw	((0 & ((1<<2)-1))<<4)|not (((1<<2)-1)<<4)
  1640  0191  30CF               	andwf	(16),f	;volatile
  1641  0192  0590               	line	26
  1642                           	
  1643                           l897:	
  1644  0193                     ;system.c: 26:     T1CONbits.T1SYNC = 1;
  1645                           	bsf	(16),2	;volatile
  1646  0193  1510               	line	27
  1647                           ;system.c: 27:     TMR1H = 0xfe;
  1648                           	movlw	low(0FEh)
  1649  0194  30FE               	movwf	(15)	;volatile
  1650  0195  008F               	line	28
  1651                           ;system.c: 28:     TMR1L = 0x70;
  1652                           	movlw	low(070h)
  1653  0196  3070               	movwf	(14)	;volatile
  1654  0197  008E               	line	29
  1655                           	
  1656                           l899:	
  1657  0198                     ;system.c: 29:     T1CONbits.TMR1ON = 1;
  1658                           	bsf	(16),0	;volatile
  1659  0198  1410               	line	32
  1660                           	
  1661                           l901:	
  1662  0199                     ;system.c: 32:     INTCONbits.PEIE = 1;
  1663                           	bsf	(11),6	;volatile
  1664  0199  170B               	line	33
  1665                           ;system.c: 33:     PIE1 = 0x01;
  1666                           	movlw	low(01h)
  1667  019A  3001               	bsf	status, 5	;RP0=1, select bank1
  1668  019B  1683               	bcf	status, 6	;RP1=0, select bank1
  1669  019C  1303               	movwf	(140)^080h	;volatile
  1670  019D  008C               	line	36
  1671                           	
  1672                           l903:	
  1673  019E                     ;system.c: 36:     ADCON1bits.PCFG = 0x6;
  1674                           	movf	(159)^080h,w	;volatile
  1675  019E  081F               	andlw	not (((1<<4)-1)<<0)
  1676  019F  39F0               	iorlw	(06h & ((1<<4)-1))<<0
  1677  01A0  3806               	movwf	(159)^080h	;volatile
  1678  01A1  009F               	line	39
  1679                           	
  1680                           l905:	
  1681  01A2                     ;system.c: 39:     PORTAbits.RA0 = 0;
  1682                           	bcf	status, 5	;RP0=0, select bank0
  1683  01A2  1283               	bcf	status, 6	;RP1=0, select bank0
  1684  01A3  1303               	bcf	(5),0	;volatile
  1685  01A4  1005               	line	40
  1686                           	
  1687                           l907:	
  1688  01A5                     ;system.c: 40:     TRISAbits.TRISA0 = 0;
  1689                           	bsf	status, 5	;RP0=1, select bank1
  1690  01A5  1683               	bcf	status, 6	;RP1=0, select bank1
  1691  01A6  1303               	bcf	(133)^080h,0	;volatile
  1692  01A7  1005               	line	41
  1693                           	
  1694                           l54:	
  1695  01A8                     	return
  1696  01A8  0008               	opt stack 0
  1697                           GLOBAL	__end_of_Configure
  1698                           	__end_of_Configure:
  1699  01A9                     	signat	_Configure,89
  1700                           	global	_isr
  1701                           
  1702 ;; *************** function _isr *****************
  1703 ;; Defined at:
  1704 ;;		line 17 in file "interrupts.c"
  1705 ;; Parameters:    Size  Location     Type
  1706 ;;		None
  1707 ;; Auto vars:     Size  Location     Type
  1708 ;;		None
  1709 ;; Return value:  Size  Location     Type
  1710 ;;                  1    wreg      void 
  1711 ;; Registers used:
  1712 ;;		wreg, status,2, status,0, pclath, cstack
  1713 ;; Tracked objects:
  1714 ;;		On entry : 0/0
  1715 ;;		On exit  : 0/0
  1716 ;;		Unchanged: 0/0
  1717 ;; Data sizes:     COMMON   BANK0   BANK1   BANK3   BANK2
  1718 ;;      Params:         0       0       0       0       0
  1719 ;;      Locals:         0       0       0       0       0
  1720 ;;      Temps:          2       0       0       0       0
  1721 ;;      Totals:         2       0       0       0       0
  1722 ;;Total ram usage:        2 bytes
  1723 ;; Hardware stack levels used:    1
  1724 ;; Hardware stack levels required when called:    2
  1725 ;; This function calls:
  1726 ;;		_BitUpdate
  1727 ;;		_TimeUpdate
  1728 ;; This function is called by:
  1729 ;;		Interrupt level 1
  1730 ;; This function uses a non-reentrant model
  1731 ;;
  1732                           psect	text5,local,class=CODE,delta=2,merge=1,group=0
  1733                           	file	"interrupts.c"
  1734                           	line	17
  1735                           global __ptext5
  1736                           __ptext5:	;psect for function _isr
  1737  01A9                     psect	text5
  1738                           	file	"interrupts.c"
  1739                           	line	17
  1740                           	global	__size_of_isr
  1741                           	__size_of_isr	equ	__end_of_isr-_isr
  1742  0021                     	
  1743                           _isr:	
  1744  01A9                     ;incstack = 0
  1745                           	opt	stack 3
  1746                           ; Regs used in _isr: [wreg+status,2+status,0+pclath+cstack]
  1747                           psect	intentry,class=CODE,delta=2
  1748                           global __pintentry
  1749                           __pintentry:
  1750  0004                     global interrupt_function
  1751                           interrupt_function:
  1752  0004                     	global saved_w
  1753                           	saved_w	set	btemp+0
  1754  007E                     	movwf	saved_w
  1755  0004  00FE               	swapf	status,w
  1756  0005  0E03               	movwf	(??_isr+0)
  1757  0006  00F8               	movf	pclath,w
  1758  0007  080A               	movwf	(??_isr+1)
  1759  0008  00F9               	ljmp	_isr
  1760  0009  120A  118A  29A9   psect	text5
  1761                           	line	19
  1762                           	
  1763                           i1l801:	
  1764  01A9                     ;interrupts.c: 19:     if (INTCONbits.T0IF==1)
  1765                           	btfss	(11),2	;volatile
  1766  01A9  1D0B               	goto	u18_21
  1767  01AA  29AC               	goto	u18_20
  1768  01AB  29AD               u18_21:
  1769  01AC                     	goto	i1l807
  1770  01AC  29B4               u18_20:
  1771  01AD                     	line	21
  1772                           	
  1773                           i1l803:	
  1774  01AD                     ;interrupts.c: 20:     {;interrupts.c: 21:         TimeUpdate();
  1775                           	fcall	_TimeUpdate
  1776  01AD  120A  118A  21FD  120A  118A  	line	22
  1777                           	
  1778                           i1l805:	
  1779  01B2                     ;interrupts.c: 22:         INTCONbits.T0IF=0;
  1780                           	bcf	(11),2	;volatile
  1781  01B2  110B               	goto	i1l807
  1782  01B3  29B4               	line	23
  1783                           ;interrupts.c: 23:     }
  1784                           	
  1785                           i1l13:	
  1786  01B4                     	line	25
  1787                           	
  1788                           i1l807:	
  1789  01B4                     ;interrupts.c: 25:     if (PIR1bits.TMR1IF==1)
  1790                           	bcf	status, 5	;RP0=0, select bank0
  1791  01B4  1283               	bcf	status, 6	;RP1=0, select bank0
  1792  01B5  1303               	btfss	(12),0	;volatile
  1793  01B6  1C0C               	goto	u19_21
  1794  01B7  29B9               	goto	u19_20
  1795  01B8  29BA               u19_21:
  1796  01B9                     	goto	i1l15
  1797  01B9  29C3               u19_20:
  1798  01BA                     	line	27
  1799                           	
  1800                           i1l809:	
  1801  01BA                     ;interrupts.c: 26:     {;interrupts.c: 27:         BitUpdate();
  1802                           	fcall	_BitUpdate
  1803  01BA  120A  118A  2026  120A  118A  	line	28
  1804                           	
  1805                           i1l811:	
  1806  01BF                     ;interrupts.c: 28:         PIR1bits.TMR1IF=0;
  1807                           	bcf	status, 5	;RP0=0, select bank0
  1808  01BF  1283               	bcf	status, 6	;RP1=0, select bank0
  1809  01C0  1303               	bcf	(12),0	;volatile
  1810  01C1  100C               	goto	i1l15
  1811  01C2  29C3               	line	29
  1812                           ;interrupts.c: 29:     }
  1813                           	
  1814                           i1l14:	
  1815  01C3                     	line	31
  1816                           	
  1817                           i1l15:	
  1818  01C3                     	movf	(??_isr+1),w
  1819  01C3  0879               	movwf	pclath
  1820  01C4  008A               	swapf	(??_isr+0)^0FFFFFF80h,w
  1821  01C5  0E78               	movwf	status
  1822  01C6  0083               	swapf	saved_w,f
  1823  01C7  0EFE               	swapf	saved_w,w
  1824  01C8  0E7E               	retfie
  1825  01C9  0009               	opt stack 0
  1826                           GLOBAL	__end_of_isr
  1827                           	__end_of_isr:
  1828  01CA                     	signat	_isr,89
  1829                           	global	_TimeUpdate
  1830                           
  1831 ;; *************** function _TimeUpdate *****************
  1832 ;; Defined at:
  1833 ;;		line 43 in file "user.c"
  1834 ;; Parameters:    Size  Location     Type
  1835 ;;		None
  1836 ;; Auto vars:     Size  Location     Type
  1837 ;;		None
  1838 ;; Return value:  Size  Location     Type
  1839 ;;                  1    wreg      void 
  1840 ;; Registers used:
  1841 ;;		wreg, status,2, status,0, pclath, cstack
  1842 ;; Tracked objects:
  1843 ;;		On entry : 0/0
  1844 ;;		On exit  : 0/0
  1845 ;;		Unchanged: 0/0
  1846 ;; Data sizes:     COMMON   BANK0   BANK1   BANK3   BANK2
  1847 ;;      Params:         0       0       0       0       0
  1848 ;;      Locals:         0       0       0       0       0
  1849 ;;      Temps:          1       0       0       0       0
  1850 ;;      Totals:         1       0       0       0       0
  1851 ;;Total ram usage:        1 bytes
  1852 ;; Hardware stack levels used:    1
  1853 ;; Hardware stack levels required when called:    1
  1854 ;; This function calls:
  1855 ;;		_StartTx
  1856 ;; This function is called by:
  1857 ;;		_isr
  1858 ;; This function uses a non-reentrant model
  1859 ;;
  1860                           psect	text6,local,class=CODE,delta=2,merge=1,group=0
  1861                           	file	"user.c"
  1862                           	line	43
  1863                           global __ptext6
  1864                           __ptext6:	;psect for function _TimeUpdate
  1865  01FD                     psect	text6
  1866                           	file	"user.c"
  1867                           	line	43
  1868                           	global	__size_of_TimeUpdate
  1869                           	__size_of_TimeUpdate	equ	__end_of_TimeUpdate-_TimeUpdate
  1870  0018                     	
  1871                           _TimeUpdate:	
  1872  01FD                     ;incstack = 0
  1873                           	opt	stack 3
  1874                           ; Regs used in _TimeUpdate: [wreg+status,2+status,0+pclath+cstack]
  1875                           	line	47
  1876                           	
  1877                           i1l701:	
  1878  01FD                     ;user.c: 45:     static uint8_t Count = 0;;user.c: 47:     if (Count++ == 9)
  1879                           	movlw	low(01h)
  1880  01FD  3001               	movwf	(??_TimeUpdate+0)+0
  1881  01FE  00F5               	movf	(??_TimeUpdate+0)+0,w
  1882  01FF  0875               	addwf	(TimeUpdate@Count),f
  1883  0200  07F0               		movlw	10
  1884  0201  300A               	xorwf	(((TimeUpdate@Count))),w
  1885  0202  0670               	btfss	status,2
  1886  0203  1D03               	goto	u3_21
  1887  0204  2A06               	goto	u3_20
  1888  0205  2A07               u3_21:
  1889  0206                     	goto	i1l705
  1890  0206  2A09               u3_20:
  1891  0207                     	line	48
  1892                           	
  1893                           i1l703:	
  1894  0207                     ;user.c: 48:         Count = 0;
  1895                           	clrf	(TimeUpdate@Count)
  1896  0207  01F0               	goto	i1l705
  1897  0208  2A09               	
  1898                           i1l75:	
  1899  0209                     	line	51
  1900                           	
  1901                           i1l705:	
  1902  0209                     ;user.c: 51:     if (Count == 0)
  1903                           	movf	((TimeUpdate@Count)),w
  1904  0209  0870               	btfss	status,2
  1905  020A  1D03               	goto	u4_21
  1906  020B  2A0D               	goto	u4_20
  1907  020C  2A0E               u4_21:
  1908  020D                     	goto	i1l77
  1909  020D  2A14               u4_20:
  1910  020E                     	line	53
  1911                           	
  1912                           i1l707:	
  1913  020E                     ;user.c: 52:     {;user.c: 53:         StartTx();
  1914                           	fcall	_StartTx
  1915  020E  120A  118A  2215  120A  118A  	goto	i1l77
  1916  0213  2A14               	line	54
  1917                           ;user.c: 54:     }
  1918                           	
  1919                           i1l76:	
  1920  0214                     	line	55
  1921                           	
  1922                           i1l77:	
  1923  0214                     	return
  1924  0214  0008               	opt stack 0
  1925                           GLOBAL	__end_of_TimeUpdate
  1926                           	__end_of_TimeUpdate:
  1927  0215                     	signat	_TimeUpdate,89
  1928                           	global	_StartTx
  1929                           
  1930 ;; *************** function _StartTx *****************
  1931 ;; Defined at:
  1932 ;;		line 169 in file "user.c"
  1933 ;; Parameters:    Size  Location     Type
  1934 ;;		None
  1935 ;; Auto vars:     Size  Location     Type
  1936 ;;		None
  1937 ;; Return value:  Size  Location     Type
  1938 ;;                  1    wreg      void 
  1939 ;; Registers used:
  1940 ;;		None
  1941 ;; Tracked objects:
  1942 ;;		On entry : 0/0
  1943 ;;		On exit  : 0/0
  1944 ;;		Unchanged: 0/0
  1945 ;; Data sizes:     COMMON   BANK0   BANK1   BANK3   BANK2
  1946 ;;      Params:         0       0       0       0       0
  1947 ;;      Locals:         0       0       0       0       0
  1948 ;;      Temps:          0       0       0       0       0
  1949 ;;      Totals:         0       0       0       0       0
  1950 ;;Total ram usage:        0 bytes
  1951 ;; Hardware stack levels used:    1
  1952 ;; This function calls:
  1953 ;;		Nothing
  1954 ;; This function is called by:
  1955 ;;		_TimeUpdate
  1956 ;; This function uses a non-reentrant model
  1957 ;;
  1958                           psect	text7,local,class=CODE,delta=2,merge=1,group=0
  1959                           	line	169
  1960                           global __ptext7
  1961                           __ptext7:	;psect for function _StartTx
  1962  0215                     psect	text7
  1963                           	file	"user.c"
  1964                           	line	169
  1965                           	global	__size_of_StartTx
  1966                           	__size_of_StartTx	equ	__end_of_StartTx-_StartTx
  1967  0005                     	
  1968                           _StartTx:	
  1969  0215                     ;incstack = 0
  1970                           	opt	stack 3
  1971                           ; Regs used in _StartTx: []
  1972                           	line	174
  1973                           	
  1974                           i1l685:	
  1975  0215                     ;user.c: 174:     SerialModeTx = 1;
  1976                           	clrf	(_SerialModeTx)
  1977  0215  01F2               	incf	(_SerialModeTx),f
  1978  0216  0AF2               	line	175
  1979                           ;user.c: 175:     TxMode = 1;
  1980                           	clrf	(_TxMode)
  1981  0217  01F4               	incf	(_TxMode),f
  1982  0218  0AF4               	line	179
  1983                           	
  1984                           i1l112:	
  1985  0219                     	return
  1986  0219  0008               	opt stack 0
  1987                           GLOBAL	__end_of_StartTx
  1988                           	__end_of_StartTx:
  1989  021A                     	signat	_StartTx,89
  1990                           	global	_BitUpdate
  1991                           
  1992 ;; *************** function _BitUpdate *****************
  1993 ;; Defined at:
  1994 ;;		line 58 in file "user.c"
  1995 ;; Parameters:    Size  Location     Type
  1996 ;;		None
  1997 ;; Auto vars:     Size  Location     Type
  1998 ;;  DataMask        1    2[COMMON] unsigned char 
  1999 ;;  DataByte        1    1[COMMON] unsigned char 
  2000 ;; Return value:  Size  Location     Type
  2001 ;;                  1    wreg      void 
  2002 ;; Registers used:
  2003 ;;		wreg, status,2, status,0
  2004 ;; Tracked objects:
  2005 ;;		On entry : 0/0
  2006 ;;		On exit  : 0/0
  2007 ;;		Unchanged: 0/0
  2008 ;; Data sizes:     COMMON   BANK0   BANK1   BANK3   BANK2
  2009 ;;      Params:         0       0       0       0       0
  2010 ;;      Locals:         2       0       0       0       0
  2011 ;;      Temps:          1       0       0       0       0
  2012 ;;      Totals:         3       0       0       0       0
  2013 ;;Total ram usage:        3 bytes
  2014 ;; Hardware stack levels used:    1
  2015 ;; This function calls:
  2016 ;;		Nothing
  2017 ;; This function is called by:
  2018 ;;		_isr
  2019 ;; This function uses a non-reentrant model
  2020 ;;
  2021                           psect	text8,local,class=CODE,delta=2,merge=1,group=0
  2022                           	line	58
  2023                           global __ptext8
  2024                           __ptext8:	;psect for function _BitUpdate
  2025  0026                     psect	text8
  2026                           	file	"user.c"
  2027                           	line	58
  2028                           	global	__size_of_BitUpdate
  2029                           	__size_of_BitUpdate	equ	__end_of_BitUpdate-_BitUpdate
  2030  00BF                     	
  2031                           _BitUpdate:	
  2032  0026                     ;incstack = 0
  2033                           	opt	stack 4
  2034                           ; Regs used in _BitUpdate: [wreg+status,2+status,0]
  2035                           	line	63
  2036                           	
  2037                           i1l709:	
  2038  0026                     ;user.c: 60:     uint8_t DataByte;;user.c: 61:     uint8_t DataMask;;user.c: 63:     if 
                                 (TxMode == 0)
  2039                           	movf	((_TxMode)),w
  2040  0026  0874               	btfss	status,2
  2041  0027  1D03               	goto	u5_21
  2042  0028  282A               	goto	u5_20
  2043  0029  282B               u5_21:
  2044  002A                     	goto	i1l715
  2045  002A  282E               u5_20:
  2046  002B                     	goto	i1l81
  2047  002B  28E4               	line	66
  2048                           	
  2049                           i1l711:	
  2050  002C                     ;user.c: 64:     {;user.c: 66:         return;
  2051                           	goto	i1l81
  2052  002C  28E4               	line	67
  2053                           	
  2054                           i1l713:	
  2055  002D                     ;user.c: 67:     }
  2056                           	goto	i1l81
  2057  002D  28E4               	line	68
  2058                           ;user.c: 68:     else if (TxMode == 1)
  2059                           	
  2060                           i1l80:	
  2061  002E                     	
  2062                           i1l715:	
  2063  002E                     		decf	((_TxMode)),w
  2064  002E  0374               	btfss	status,2
  2065  002F  1D03               	goto	u6_21
  2066  0030  2832               	goto	u6_20
  2067  0031  2833               u6_21:
  2068  0032                     	goto	i1l723
  2069  0032  283E               u6_20:
  2070  0033                     	line	70
  2071                           	
  2072                           i1l717:	
  2073  0033                     ;user.c: 69:     {;user.c: 70:         RA0 = 0;
  2074                           	bcf	status, 5	;RP0=0, select bank0
  2075  0033  1283               	bcf	status, 6	;RP1=0, select bank0
  2076  0034  1303               	bcf	(40/8),(40)&7	;volatile
  2077  0035  1005               	line	71
  2078                           ;user.c: 71:         RC1 = 1;
  2079                           	bsf	(57/8),(57)&7	;volatile
  2080  0036  1487               	line	73
  2081                           	
  2082                           i1l719:	
  2083  0037                     ;user.c: 73:         DataMode = 0;
  2084                           	clrf	(_DataMode)
  2085  0037  01F3               	line	74
  2086                           ;user.c: 74:         DataMask = 0;
  2087                           	clrf	(BitUpdate@DataMask)
  2088  0038  01F7               	line	76
  2089                           	
  2090                           i1l721:	
  2091  0039                     ;user.c: 76:         TxMode = 2;
  2092                           	movlw	low(02h)
  2093  0039  3002               	movwf	(??_BitUpdate+0)+0
  2094  003A  00F5               	movf	(??_BitUpdate+0)+0,w
  2095  003B  0875               	movwf	(_TxMode)
  2096  003C  00F4               	line	77
  2097                           ;user.c: 77:     }
  2098                           	goto	i1l81
  2099  003D  28E4               	line	78
  2100                           ;user.c: 78:     else if (TxMode == 2)
  2101                           	
  2102                           i1l83:	
  2103  003E                     	
  2104                           i1l723:	
  2105  003E                     		movlw	2
  2106  003E  3002               	xorwf	((_TxMode)),w
  2107  003F  0674               	btfss	status,2
  2108  0040  1D03               	goto	u7_21
  2109  0041  2843               	goto	u7_20
  2110  0042  2844               u7_21:
  2111  0043                     	goto	i1l753
  2112  0043  28AB               u7_20:
  2113  0044                     	line	81
  2114                           	
  2115                           i1l725:	
  2116  0044                     ;user.c: 79:     {;user.c: 81:         if (DataMask == 0)
  2117                           	movf	((BitUpdate@DataMask)),w
  2118  0044  0877               	btfss	status,2
  2119  0045  1D03               	goto	u8_21
  2120  0046  2848               	goto	u8_20
  2121  0047  2849               u8_21:
  2122  0048                     	goto	i1l745
  2123  0048  2895               u8_20:
  2124  0049                     	line	83
  2125                           	
  2126                           i1l727:	
  2127  0049                     ;user.c: 82:         {;user.c: 83:             if (DataMode == 0)
  2128                           	movf	((_DataMode)),w
  2129  0049  0873               	btfss	status,2
  2130  004A  1D03               	goto	u9_21
  2131  004B  284D               	goto	u9_20
  2132  004C  284E               u9_21:
  2133  004D                     	goto	i1l733
  2134  004D  2859               u9_20:
  2135  004E                     	line	86
  2136                           	
  2137                           i1l729:	
  2138  004E                     ;user.c: 84:             {;user.c: 86:                 DataByte = 0x9;
  2139                           	movlw	low(09h)
  2140  004E  3009               	movwf	(??_BitUpdate+0)+0
  2141  004F  00F5               	movf	(??_BitUpdate+0)+0,w
  2142  0050  0875               	movwf	(BitUpdate@DataByte)
  2143  0051  00F6               	line	87
  2144                           ;user.c: 87:                 DataMask = 0x08;
  2145                           	movlw	low(08h)
  2146  0052  3008               	movwf	(??_BitUpdate+0)+0
  2147  0053  00F5               	movf	(??_BitUpdate+0)+0,w
  2148  0054  0875               	movwf	(BitUpdate@DataMask)
  2149  0055  00F7               	line	90
  2150                           	
  2151                           i1l731:	
  2152  0056                     ;user.c: 90:                 DataMode = 1;
  2153                           	clrf	(_DataMode)
  2154  0056  01F3               	incf	(_DataMode),f
  2155  0057  0AF3               	line	91
  2156                           ;user.c: 91:             }
  2157                           	goto	i1l745
  2158  0058  2895               	line	92
  2159                           ;user.c: 92:             else if (DataMode == 1)
  2160                           	
  2161                           i1l87:	
  2162  0059                     	
  2163                           i1l733:	
  2164  0059                     		decf	((_DataMode)),w
  2165  0059  0373               	btfss	status,2
  2166  005A  1D03               	goto	u10_21
  2167  005B  285D               	goto	u10_20
  2168  005C  285E               u10_21:
  2169  005D                     	goto	i1l737
  2170  005D  286B               u10_20:
  2171  005E                     	line	95
  2172                           	
  2173                           i1l735:	
  2174  005E                     ;user.c: 93:             {;user.c: 95:                 DataByte = 0x3;
  2175                           	movlw	low(03h)
  2176  005E  3003               	movwf	(??_BitUpdate+0)+0
  2177  005F  00F5               	movf	(??_BitUpdate+0)+0,w
  2178  0060  0875               	movwf	(BitUpdate@DataByte)
  2179  0061  00F6               	line	96
  2180                           ;user.c: 96:                 DataMask = 0x10;
  2181                           	movlw	low(010h)
  2182  0062  3010               	movwf	(??_BitUpdate+0)+0
  2183  0063  00F5               	movf	(??_BitUpdate+0)+0,w
  2184  0064  0875               	movwf	(BitUpdate@DataMask)
  2185  0065  00F7               	line	99
  2186                           ;user.c: 99:                 DataMode = 2;
  2187                           	movlw	low(02h)
  2188  0066  3002               	movwf	(??_BitUpdate+0)+0
  2189  0067  00F5               	movf	(??_BitUpdate+0)+0,w
  2190  0068  0875               	movwf	(_DataMode)
  2191  0069  00F3               	line	100
  2192                           ;user.c: 100:             }
  2193                           	goto	i1l745
  2194  006A  2895               	line	101
  2195                           ;user.c: 101:             else if (DataMode == 2)
  2196                           	
  2197                           i1l89:	
  2198  006B                     	
  2199                           i1l737:	
  2200  006B                     		movlw	2
  2201  006B  3002               	xorwf	((_DataMode)),w
  2202  006C  0673               	btfss	status,2
  2203  006D  1D03               	goto	u11_21
  2204  006E  2870               	goto	u11_20
  2205  006F  2871               u11_21:
  2206  0070                     	goto	i1l741
  2207  0070  287E               u11_20:
  2208  0071                     	line	104
  2209                           	
  2210                           i1l739:	
  2211  0071                     ;user.c: 102:             {;user.c: 104:                 DataByte = 0x07;
  2212                           	movlw	low(07h)
  2213  0071  3007               	movwf	(??_BitUpdate+0)+0
  2214  0072  00F5               	movf	(??_BitUpdate+0)+0,w
  2215  0073  0875               	movwf	(BitUpdate@DataByte)
  2216  0074  00F6               	line	105
  2217                           ;user.c: 105:                 DataMask = 0x10;
  2218                           	movlw	low(010h)
  2219  0075  3010               	movwf	(??_BitUpdate+0)+0
  2220  0076  00F5               	movf	(??_BitUpdate+0)+0,w
  2221  0077  0875               	movwf	(BitUpdate@DataMask)
  2222  0078  00F7               	line	108
  2223                           ;user.c: 108:                 DataMode = 3;
  2224                           	movlw	low(03h)
  2225  0079  3003               	movwf	(??_BitUpdate+0)+0
  2226  007A  00F5               	movf	(??_BitUpdate+0)+0,w
  2227  007B  0875               	movwf	(_DataMode)
  2228  007C  00F3               	line	109
  2229                           ;user.c: 109:             }
  2230                           	goto	i1l745
  2231  007D  2895               	line	110
  2232                           ;user.c: 110:             else if (DataMode == 3)
  2233                           	
  2234                           i1l91:	
  2235  007E                     	
  2236                           i1l741:	
  2237  007E                     		movlw	3
  2238  007E  3003               	xorwf	((_DataMode)),w
  2239  007F  0673               	btfss	status,2
  2240  0080  1D03               	goto	u12_21
  2241  0081  2883               	goto	u12_20
  2242  0082  2884               u12_21:
  2243  0083                     	goto	i1l745
  2244  0083  2895               u12_20:
  2245  0084                     	line	113
  2246                           	
  2247                           i1l743:	
  2248  0084                     ;user.c: 111:             {;user.c: 113:                 DataByte = 0x55;
  2249                           	movlw	low(055h)
  2250  0084  3055               	movwf	(??_BitUpdate+0)+0
  2251  0085  00F5               	movf	(??_BitUpdate+0)+0,w
  2252  0086  0875               	movwf	(BitUpdate@DataByte)
  2253  0087  00F6               	line	114
  2254                           ;user.c: 114:                 DataMask = 0x80;
  2255                           	movlw	low(080h)
  2256  0088  3080               	movwf	(??_BitUpdate+0)+0
  2257  0089  00F5               	movf	(??_BitUpdate+0)+0,w
  2258  008A  0875               	movwf	(BitUpdate@DataMask)
  2259  008B  00F7               	line	116
  2260                           ;user.c: 116:                 DataMode = 4;
  2261                           	movlw	low(04h)
  2262  008C  3004               	movwf	(??_BitUpdate+0)+0
  2263  008D  00F5               	movf	(??_BitUpdate+0)+0,w
  2264  008E  0875               	movwf	(_DataMode)
  2265  008F  00F3               	goto	i1l745
  2266  0090  2895               	line	117
  2267                           ;user.c: 117:             }
  2268                           	
  2269                           i1l93:	
  2270  0091                     	goto	i1l745
  2271  0091  2895               	
  2272                           i1l92:	
  2273  0092                     	goto	i1l745
  2274  0092  2895               	
  2275                           i1l90:	
  2276  0093                     	goto	i1l745
  2277  0093  2895               	
  2278                           i1l88:	
  2279  0094                     	goto	i1l745
  2280  0094  2895               	line	118
  2281                           ;user.c: 118:         }
  2282                           	
  2283                           i1l86:	
  2284  0095                     	line	120
  2285                           	
  2286                           i1l745:	
  2287  0095                     ;user.c: 120:         if (DataMask != 0)
  2288                           	movf	((BitUpdate@DataMask)),w
  2289  0095  0877               	btfsc	status,2
  2290  0096  1903               	goto	u13_21
  2291  0097  2899               	goto	u13_20
  2292  0098  289A               u13_21:
  2293  0099                     	goto	i1l94
  2294  0099  28A2               u13_20:
  2295  009A                     	line	122
  2296                           	
  2297                           i1l747:	
  2298  009A                     ;user.c: 121:         {;user.c: 122:             RA0 = 1;
  2299                           	bcf	status, 5	;RP0=0, select bank0
  2300  009A  1283               	bcf	status, 6	;RP1=0, select bank0
  2301  009B  1303               	bsf	(40/8),(40)&7	;volatile
  2302  009C  1405               	line	123
  2303                           	
  2304                           i1l749:	
  2305  009D                     ;user.c: 123:             TxMode = 3;
  2306                           	movlw	low(03h)
  2307  009D  3003               	movwf	(??_BitUpdate+0)+0
  2308  009E  00F5               	movf	(??_BitUpdate+0)+0,w
  2309  009F  0875               	movwf	(_TxMode)
  2310  00A0  00F4               	line	124
  2311                           ;user.c: 124:         }
  2312                           	goto	i1l81
  2313  00A1  28E4               	line	125
  2314                           ;user.c: 125:         else
  2315                           	
  2316                           i1l94:	
  2317  00A2                     	line	127
  2318                           ;user.c: 126:         {;user.c: 127:             RA0 = 1;
  2319                           	bcf	status, 5	;RP0=0, select bank0
  2320  00A2  1283               	bcf	status, 6	;RP1=0, select bank0
  2321  00A3  1303               	bsf	(40/8),(40)&7	;volatile
  2322  00A4  1405               	line	128
  2323                           	
  2324                           i1l751:	
  2325  00A5                     ;user.c: 128:             TxMode = 5;
  2326                           	movlw	low(05h)
  2327  00A5  3005               	movwf	(??_BitUpdate+0)+0
  2328  00A6  00F5               	movf	(??_BitUpdate+0)+0,w
  2329  00A7  0875               	movwf	(_TxMode)
  2330  00A8  00F4               	goto	i1l81
  2331  00A9  28E4               	line	129
  2332                           ;user.c: 129:         }
  2333                           	
  2334                           i1l95:	
  2335  00AA                     	line	131
  2336                           ;user.c: 131:     }
  2337                           	goto	i1l81
  2338  00AA  28E4               	line	132
  2339                           ;user.c: 132:     else if (TxMode == 3)
  2340                           	
  2341                           i1l85:	
  2342  00AB                     	
  2343                           i1l753:	
  2344  00AB                     		movlw	3
  2345  00AB  3003               	xorwf	((_TxMode)),w
  2346  00AC  0674               	btfss	status,2
  2347  00AD  1D03               	goto	u14_21
  2348  00AE  28B0               	goto	u14_20
  2349  00AF  28B1               u14_21:
  2350  00B0                     	goto	i1l761
  2351  00B0  28C6               u14_20:
  2352  00B1                     	line	135
  2353                           	
  2354                           i1l755:	
  2355  00B1                     ;user.c: 133:     {;user.c: 135:         if (DataByte & DataMask)
  2356                           	movf	(BitUpdate@DataByte),w
  2357  00B1  0876               	andwf	(BitUpdate@DataMask),w
  2358  00B2  0577               	btfsc	status,2
  2359  00B3  1903               	goto	u15_21
  2360  00B4  28B6               	goto	u15_20
  2361  00B5  28B7               u15_21:
  2362  00B6                     	goto	i1l98
  2363  00B6  28BB               u15_20:
  2364  00B7                     	line	136
  2365                           	
  2366                           i1l757:	
  2367  00B7                     ;user.c: 136:             RA0 = 1;
  2368                           	bcf	status, 5	;RP0=0, select bank0
  2369  00B7  1283               	bcf	status, 6	;RP1=0, select bank0
  2370  00B8  1303               	bsf	(40/8),(40)&7	;volatile
  2371  00B9  1405               	goto	i1l759
  2372  00BA  28BF               	line	137
  2373                           ;user.c: 137:         else
  2374                           	
  2375                           i1l98:	
  2376  00BB                     	line	138
  2377                           ;user.c: 138:             RA0 = 0;
  2378                           	bcf	status, 5	;RP0=0, select bank0
  2379  00BB  1283               	bcf	status, 6	;RP1=0, select bank0
  2380  00BC  1303               	bcf	(40/8),(40)&7	;volatile
  2381  00BD  1005               	goto	i1l759
  2382  00BE  28BF               	
  2383                           i1l99:	
  2384  00BF                     	line	141
  2385                           	
  2386                           i1l759:	
  2387  00BF                     ;user.c: 141:         DataMask >>= 1;
  2388                           	clrc
  2389  00BF  1003               	rrf	(BitUpdate@DataMask),f
  2390  00C0  0CF7               
  2391                           	line	143
  2392                           ;user.c: 143:         TxMode = 4;
  2393                           	movlw	low(04h)
  2394  00C1  3004               	movwf	(??_BitUpdate+0)+0
  2395  00C2  00F5               	movf	(??_BitUpdate+0)+0,w
  2396  00C3  0875               	movwf	(_TxMode)
  2397  00C4  00F4               	line	144
  2398                           ;user.c: 144:     }
  2399                           	goto	i1l81
  2400  00C5  28E4               	line	145
  2401                           ;user.c: 145:     else if (TxMode == 4)
  2402                           	
  2403                           i1l97:	
  2404  00C6                     	
  2405                           i1l761:	
  2406  00C6                     		movlw	4
  2407  00C6  3004               	xorwf	((_TxMode)),w
  2408  00C7  0674               	btfss	status,2
  2409  00C8  1D03               	goto	u16_21
  2410  00C9  28CB               	goto	u16_20
  2411  00CA  28CC               u16_21:
  2412  00CB                     	goto	i1l767
  2413  00CB  28D4               u16_20:
  2414  00CC                     	line	147
  2415                           	
  2416                           i1l763:	
  2417  00CC                     ;user.c: 146:     {;user.c: 147:         RA0 = 0;
  2418                           	bcf	status, 5	;RP0=0, select bank0
  2419  00CC  1283               	bcf	status, 6	;RP1=0, select bank0
  2420  00CD  1303               	bcf	(40/8),(40)&7	;volatile
  2421  00CE  1005               	line	148
  2422                           	
  2423                           i1l765:	
  2424  00CF                     ;user.c: 148:         TxMode = 2;
  2425                           	movlw	low(02h)
  2426  00CF  3002               	movwf	(??_BitUpdate+0)+0
  2427  00D0  00F5               	movf	(??_BitUpdate+0)+0,w
  2428  00D1  0875               	movwf	(_TxMode)
  2429  00D2  00F4               	line	149
  2430                           ;user.c: 149:     }
  2431                           	goto	i1l81
  2432  00D3  28E4               	line	150
  2433                           ;user.c: 150:     else if (TxMode == 5)
  2434                           	
  2435                           i1l101:	
  2436  00D4                     	
  2437                           i1l767:	
  2438  00D4                     		movlw	5
  2439  00D4  3005               	xorwf	((_TxMode)),w
  2440  00D5  0674               	btfss	status,2
  2441  00D6  1D03               	goto	u17_21
  2442  00D7  28D9               	goto	u17_20
  2443  00D8  28DA               u17_21:
  2444  00D9                     	goto	i1l81
  2445  00D9  28E4               u17_20:
  2446  00DA                     	line	152
  2447                           	
  2448                           i1l769:	
  2449  00DA                     ;user.c: 151:     {;user.c: 152:         RC1 = 0;
  2450                           	bcf	status, 5	;RP0=0, select bank0
  2451  00DA  1283               	bcf	status, 6	;RP1=0, select bank0
  2452  00DB  1303               	bcf	(57/8),(57)&7	;volatile
  2453  00DC  1087               	line	153
  2454                           	
  2455                           i1l771:	
  2456  00DD                     ;user.c: 153:         TxMode = 0;
  2457                           	clrf	(_TxMode)
  2458  00DD  01F4               	goto	i1l81
  2459  00DE  28E4               	line	154
  2460                           ;user.c: 154:     }
  2461                           	
  2462                           i1l103:	
  2463  00DF                     	goto	i1l81
  2464  00DF  28E4               	
  2465                           i1l102:	
  2466  00E0                     	goto	i1l81
  2467  00E0  28E4               	
  2468                           i1l100:	
  2469  00E1                     	goto	i1l81
  2470  00E1  28E4               	
  2471                           i1l96:	
  2472  00E2                     	goto	i1l81
  2473  00E2  28E4               	
  2474                           i1l84:	
  2475  00E3                     	goto	i1l81
  2476  00E3  28E4               	
  2477                           i1l82:	
  2478  00E4                     	line	155
  2479                           	
  2480                           i1l81:	
  2481  00E4                     	return
  2482  00E4  0008               	opt stack 0
  2483                           GLOBAL	__end_of_BitUpdate
  2484                           	__end_of_BitUpdate:
  2485  00E5                     	signat	_BitUpdate,89
  2486                           global	___latbits
  2487                           ___latbits	equ	2
  2488  0002                     	global	btemp
  2489                           	btemp set 07Eh
  2490  007E                     
  2491                           	DABS	1,126,2	;btemp
  2492                           	global	wtemp0
  2493                           	wtemp0 set btemp+0
  2494  007E                     	end


Data Sizes:
    Strings     0
    Constant    0
    Data        0
    BSS         17
    Persistent  0
    Stack       0

Auto Spaces:
    Space          Size  Autos    Used
    COMMON           14      5      10
    BANK0            80     11      23
    BANK1            80      0       0
    BANK3            96      0       0
    BANK2            96      0       0

Pointer List with Targets:

    None.

Critical Paths under _main in COMMON

    None.

Critical Paths under _isr in COMMON

    _isr->_BitUpdate

Critical Paths under _main in BANK0

    _main->_SetUnitConfig
    _SetUnitLamps->___bmul
    _SetUnitConfig->___bmul

Critical Paths under _isr in BANK0

    None.

Critical Paths under _main in BANK1

    None.

Critical Paths under _isr in BANK1

    None.

Critical Paths under _main in BANK3

    None.

Critical Paths under _isr in BANK3

    None.

Critical Paths under _main in BANK2

    None.

Critical Paths under _isr in BANK2

    None.

Call Graph Tables:

 ---------------------------------------------------------------------------------
 (Depth) Function   	        Calls       Base Space   Used Autos Params    Refs
 ---------------------------------------------------------------------------------
 (0) _main                                                 2     2      0    1748
                                              9 BANK0      2     2      0
                          _Configure
                      _SetUnitConfig
                       _SetUnitLamps
 ---------------------------------------------------------------------------------
 (1) _SetUnitLamps                                         4     3      1     663
                                              4 BANK0      4     3      1
                             ___bmul
 ---------------------------------------------------------------------------------
 (1) _SetUnitConfig                                        5     3      2    1085
                                              4 BANK0      5     3      2
                             ___bmul
 ---------------------------------------------------------------------------------
 (2) ___bmul                                               4     3      1     241
                                              0 BANK0      4     3      1
 ---------------------------------------------------------------------------------
 (1) _Configure                                            0     0      0       0
 ---------------------------------------------------------------------------------
 Estimated maximum stack depth 2
 ---------------------------------------------------------------------------------
 (Depth) Function   	        Calls       Base Space   Used Autos Params    Refs
 ---------------------------------------------------------------------------------
 (3) _isr                                                  2     2      0      60
                                              3 COMMON     2     2      0
                          _BitUpdate
                         _TimeUpdate
 ---------------------------------------------------------------------------------
 (4) _TimeUpdate                                           1     1      0       0
                                              0 COMMON     1     1      0
                            _StartTx
 ---------------------------------------------------------------------------------
 (5) _StartTx                                              0     0      0       0
 ---------------------------------------------------------------------------------
 (4) _BitUpdate                                            3     3      0      60
                                              0 COMMON     3     3      0
 ---------------------------------------------------------------------------------
 Estimated maximum stack depth 5
 ---------------------------------------------------------------------------------

 Call Graph Graphs:

 _main (ROOT)
   _Configure
   _SetUnitConfig
     ___bmul
   _SetUnitLamps
     ___bmul

 _isr (ROOT)
   _BitUpdate
   _TimeUpdate
     _StartTx

 Address spaces:
Name               Size   Autos  Total    Cost      Usage
BITCOMMON            E      0       0       0        0.0%
EEDATA             100      0       0       0        0.0%
NULL                 0      0       0       0        0.0%
CODE                 0      0       0       0        0.0%
COMMON               E      5       A       1       71.4%
BITSFR0              0      0       0       1        0.0%
SFR0                 0      0       0       1        0.0%
BITSFR1              0      0       0       2        0.0%
SFR1                 0      0       0       2        0.0%
STACK                0      0       0       2        0.0%
ABS                  0      0      21       3        0.0%
BITBANK0            50      0       0       4        0.0%
BITSFR3              0      0       0       4        0.0%
SFR3                 0      0       0       4        0.0%
BANK0               50      B      17       5       28.8%
BITSFR2              0      0       0       5        0.0%
SFR2                 0      0       0       5        0.0%
BITBANK1            50      0       0       6        0.0%
BANK1               50      0       0       7        0.0%
BITBANK3            60      0       0       8        0.0%
BANK3               60      0       0       9        0.0%
BITBANK2            60      0       0      10        0.0%
BANK2               60      0       0      11        0.0%
DATA                 0      0      21      12        0.0%


Microchip Technology PIC Macro Assembler V2.00 build -1524193055 
Symbol Table                                                                                   Wed Oct 17 15:48:05 2018

        TimeUpdate@Count 0070           ___bmul@product 002E              __CFG_CP$OFF 0000  
      SetUnitConfig@Unit 0034                       l30 0157                       l31 0157  
                     l28 0156                       l29 0156                       l54 01A8  
     SetUnitConfig@Lamps 0031    __end_of_SetUnitConfig 0185                      l106 0184  
                    l221 01CF                      l109 01FC                      l222 01D8  
                    l223 01E2                      l224 01E4                      l901 0199  
                    l903 019E                      l911 01E8                      l905 01A2  
                    l921 0111                      l913 00E5                      l907 01A5  
                    l931 0155                      l923 011D                      l915 00EA  
                    l909 015D                      l925 012D                      l917 00F7  
                    l871 01CD                      l927 0139                      l919 0103  
                    l881 01E2                      l873 01CF                      l929 0149  
                    l891 018F                      l883 01E4                      l875 01D3  
                    l893 0190                      l885 0185                      l877 01D8  
                    l895 0191                      l887 0189                      l879 01DA  
                    l897 0193                      l889 018B                      l899 0198  
                    _RA0 0028                      _RC1 0039                      u220 01D3  
                    u221 01D2                      u230 01E1                      u231 01E0  
           __CFG_CPD$OFF 0000              __CFG_WRT$ON 0000                      _isr 01A9  
                    fsr0 0004                      indf 0000         SetUnitLamps@Unit 0033  
           __CFG_FOSC$HS 0000             __CFG_LVP$OFF 0000                     ?_isr 0075  
                   _PIE1 008C                     i1l13 01B4                     i1l14 01C3  
                   i1l15 01C3                     i1l80 002E                     i1l81 00E4  
                   i1l82 00E4                     i1l90 0093                     i1l91 007E  
                   i1l83 003E                     i1l75 0209                     i1l84 00E3  
                   i1l92 0092                     i1l76 0214                     i1l85 00AB  
                   i1l93 0091                     i1l77 0214                     i1l94 00A2  
                   i1l86 0095                     i1l95 00AA                     i1l87 0059  
                   i1l96 00E2                     i1l88 0094                     i1l97 00C6  
                   i1l89 006B                     i1l98 00BB                     i1l99 00BF  
                   _TMR0 0001                     u3_20 0207                     u3_21 0206  
                   u4_20 020E                     u4_21 020D                     u5_20 002B  
                   u5_21 002A                     u6_20 0033                     u6_21 0032  
                   u7_20 0044                     u7_21 0043                     u8_20 0049  
                   u8_21 0048                     u9_20 004E                     u9_21 004D  
                   _main 00E5                     btemp 007E            __CFG_BOREN$ON 0000  
                   start 000C     SetUnitConfig@Address 0030        ___bmul@multiplier 002F  
                  ??_isr 0078          __end_of_StartTx 021A                    ?_main 0075  
          __CFG_WDTE$OFF 0000                    i1l100 00E1                    i1l101 00D4  
                  i1l102 00E0                    i1l103 00DF                    i1l112 0219  
                  i1l701 01FD                    i1l711 002C                    i1l703 0207  
                  i1l721 0039                    i1l713 002D                    i1l705 0209  
                  i1l801 01A9                    i1l731 0056                    i1l723 003E  
                  i1l715 002E                    i1l707 020E                    i1l811 01BF  
                  i1l803 01AD                    i1l741 007E                    i1l733 0059  
                  i1l725 0044                    i1l717 0033                    i1l709 0026  
                  i1l805 01B2                    i1l751 00A5                    i1l743 0084  
                  i1l735 005E                    i1l727 0049                    i1l719 0037  
                  i1l807 01B4                    i1l761 00C6                    i1l737 006B  
                  i1l729 004E                    i1l745 0095                    i1l753 00AB  
                  i1l809 01BA                    i1l771 00DD                    i1l763 00CC  
                  i1l755 00B1                    i1l747 009A                    i1l739 0071  
                  i1l765 00CF                    i1l757 00B7                    i1l749 009D  
                  i1l685 0215                    i1l767 00D4                    i1l759 00BF  
                  i1l769 00DA                    u10_20 005E                    u10_21 005D  
                  u11_20 0071                    u11_21 0070                    u12_20 0084  
                  u12_21 0083                    u13_20 009A                    u13_21 0099  
                  u14_20 00B1                    u14_21 00B0                    u15_20 00B7  
                  u15_21 00B6                    u16_20 00CC                    u16_21 00CB  
                  u17_20 00DA                    u17_21 00D9                    _TMR1H 000F  
                  _TMR1L 000E                    u18_20 01AD                    u18_21 01AC  
                  u19_20 01BA                    u19_21 01B9                    _TxBit 0071  
                  _Units 0020                    pclath 000A                    status 0003  
                  wtemp0 007E          __initialization 000F             __end_of_main 015A  
     __size_of_BitUpdate 00BF                   ??_main 0035       __size_of_Configure 0024  
         __CFG_PWRTE$OFF 0000                   _TxMode 0074               _TimeUpdate 01FD  
                 ___bmul 01CA                ??_StartTx 0075                   saved_w 007E  
      __end_of_BitUpdate 00E5  __end_of__initialization 0022      ___bmul@multiplicand 002C  
         __pcstackCOMMON 0075        __end_of_Configure 01A9            ?_SetUnitLamps 0030  
      BitUpdate@DataMask 0077        BitUpdate@DataByte 0076           _OPTION_REGbits 0081  
             __pbssBANK0 0020               __pmaintext 00E5              ?_TimeUpdate 0075  
                ?___bmul 002C           ??_SetUnitLamps 0031               __pintentry 0004  
 __size_of_SetUnitConfig 002B                  _StartTx 0215          __size_of___bmul 001B  
                __ptext1 01E5                  __ptext2 015A                  __ptext3 01CA  
                __ptext4 0185                  __ptext5 01A9                  __ptext6 01FD  
                __ptext7 0215                  __ptext8 0026                _T1CONbits 0010  
           __size_of_isr 0021      __size_of_TimeUpdate 0018     end_of_initialization 0022  
   SetUnitLamps@LampData 0030                _PORTAbits 0005            _SetUnitConfig 015A  
              _TRISAbits 0085     __end_of_SetUnitLamps 01FD                _BitUpdate 0026  
         __end_of___bmul 01E5                _Configure 0185           ?_SetUnitConfig 0030  
    start_initialization 000F              __end_of_isr 01CA               ?_BitUpdate 0075  
           ??_TimeUpdate 0075                 ??___bmul 002D               ?_Configure 0075  
            __pbssCOMMON 0070                ___latbits 0002            __pcstackBANK0 002C  
     __end_of_TimeUpdate 0215                 ?_StartTx 0075          ??_SetUnitConfig 0032  
  __size_of_SetUnitLamps 0018        interrupt_function 0004              ??_BitUpdate 0075  
               _PIR1bits 000C             _SetUnitLamps 01E5              ??_Configure 002C  
             _ADCON1bits 009F                 _DataMode 0073             _SerialModeTx 0072  
       __size_of_StartTx 0005            __size_of_main 0075               _INTCONbits 000B  
               intlevel1 0000  
